ARM GAS  C:\Users\ASUS\AppData\Local\Temp\cctml4Dx.s 			page 1


   1              		.cpu cortex-m3
   2              		.arch armv7-m
   3              		.fpu softvfp
   4              		.eabi_attribute 20, 1
   5              		.eabi_attribute 21, 1
   6              		.eabi_attribute 23, 3
   7              		.eabi_attribute 24, 1
   8              		.eabi_attribute 25, 1
   9              		.eabi_attribute 26, 1
  10              		.eabi_attribute 30, 6
  11              		.eabi_attribute 34, 1
  12              		.eabi_attribute 18, 4
  13              		.file	"LED_TOGGLE.c"
  14              		.text
  15              	.Ltext0:
  16              		.cfi_sections	.debug_frame
  17              		.global	RED1
  18              		.section	.bss.RED1,"aw",%nobits
  19              		.align	2
  22              	RED1:
  23 0000 00000000 		.space	4
  24              		.global	YELLOW1
  25              		.section	.bss.YELLOW1,"aw",%nobits
  26              		.align	2
  29              	YELLOW1:
  30 0000 00000000 		.space	4
  31              		.global	GREEN1
  32              		.section	.bss.GREEN1,"aw",%nobits
  33              		.align	2
  36              	GREEN1:
  37 0000 00000000 		.space	4
  38              		.global	RED2
  39              		.section	.bss.RED2,"aw",%nobits
  40              		.align	2
  43              	RED2:
  44 0000 00000000 		.space	4
  45              		.global	YELLOW2
  46              		.section	.bss.YELLOW2,"aw",%nobits
  47              		.align	2
  50              	YELLOW2:
  51 0000 00000000 		.space	4
  52              		.global	GREEN2
  53              		.section	.bss.GREEN2,"aw",%nobits
  54              		.align	2
  57              	GREEN2:
  58 0000 00000000 		.space	4
  59              		.global	RED3
  60              		.section	.bss.RED3,"aw",%nobits
  61              		.align	2
  64              	RED3:
  65 0000 00000000 		.space	4
  66              		.global	YELLOW3
  67              		.section	.bss.YELLOW3,"aw",%nobits
  68              		.align	2
  71              	YELLOW3:
  72 0000 00000000 		.space	4
  73              		.global	GREEN3
ARM GAS  C:\Users\ASUS\AppData\Local\Temp\cctml4Dx.s 			page 2


  74              		.section	.bss.GREEN3,"aw",%nobits
  75              		.align	2
  78              	GREEN3:
  79 0000 00000000 		.space	4
  80              		.section	.text.LED1_OFF,"ax",%progbits
  81              		.align	1
  82              		.global	LED1_OFF
  83              		.syntax unified
  84              		.thumb
  85              		.thumb_func
  87              	LED1_OFF:
  88              	.LFB65:
  89              		.file 1 "./Core/Src/LED_TOGGLE.c"
   1:./Core/Src/LED_TOGGLE.c **** /*
   2:./Core/Src/LED_TOGGLE.c ****  * LED_TOGGLE.c
   3:./Core/Src/LED_TOGGLE.c ****  *
   4:./Core/Src/LED_TOGGLE.c ****  *  Created on: Dec 11, 2022
   5:./Core/Src/LED_TOGGLE.c ****  *      Author: ASUS
   6:./Core/Src/LED_TOGGLE.c ****  */
   7:./Core/Src/LED_TOGGLE.c **** 
   8:./Core/Src/LED_TOGGLE.c **** #include "LED_TOGGLE.h"
   9:./Core/Src/LED_TOGGLE.c **** 
  10:./Core/Src/LED_TOGGLE.c **** int RED1 = 0;
  11:./Core/Src/LED_TOGGLE.c **** int YELLOW1 = 0;
  12:./Core/Src/LED_TOGGLE.c **** int GREEN1 = 0;
  13:./Core/Src/LED_TOGGLE.c **** 
  14:./Core/Src/LED_TOGGLE.c **** int RED2 = 0;
  15:./Core/Src/LED_TOGGLE.c **** int YELLOW2 = 0;
  16:./Core/Src/LED_TOGGLE.c **** int GREEN2 = 0;
  17:./Core/Src/LED_TOGGLE.c **** 
  18:./Core/Src/LED_TOGGLE.c **** int RED3 = 0;
  19:./Core/Src/LED_TOGGLE.c **** int YELLOW3 = 0;
  20:./Core/Src/LED_TOGGLE.c **** int GREEN3 = 0;
  21:./Core/Src/LED_TOGGLE.c **** 
  22:./Core/Src/LED_TOGGLE.c **** 
  23:./Core/Src/LED_TOGGLE.c **** /////////////////////////////////////////////////////////
  24:./Core/Src/LED_TOGGLE.c **** //-------------------For TEST ONLY------------------////
  25:./Core/Src/LED_TOGGLE.c **** ///////////////////////////////////////////////////////
  26:./Core/Src/LED_TOGGLE.c **** 
  27:./Core/Src/LED_TOGGLE.c **** /*
  28:./Core/Src/LED_TOGGLE.c **** 
  29:./Core/Src/LED_TOGGLE.c **** // GROUP LED1;
  30:./Core/Src/LED_TOGGLE.c **** void LED1_OFF(){
  31:./Core/Src/LED_TOGGLE.c **** 	HAL_GPIO_WritePin(LED_RED1_GPIO_Port, LED_RED1_Pin, RESET);
  32:./Core/Src/LED_TOGGLE.c **** 	HAL_GPIO_WritePin(LED_YELLOW1_GPIO_Port, LED_YELLOW1_Pin, RESET);
  33:./Core/Src/LED_TOGGLE.c **** 	HAL_GPIO_WritePin(LED_GREEN1_GPIO_Port, LED_GREEN1_Pin, RESET);
  34:./Core/Src/LED_TOGGLE.c **** }
  35:./Core/Src/LED_TOGGLE.c **** 
  36:./Core/Src/LED_TOGGLE.c **** void RED1_TOGGLE(){
  37:./Core/Src/LED_TOGGLE.c **** 	if (RED1 == 0){
  38:./Core/Src/LED_TOGGLE.c **** 		HAL_GPIO_WritePin(LED_RED1_GPIO_Port, LED_RED1_Pin, SET);
  39:./Core/Src/LED_TOGGLE.c **** 		RED1 = 1;
  40:./Core/Src/LED_TOGGLE.c **** 	}
  41:./Core/Src/LED_TOGGLE.c **** 	else{
  42:./Core/Src/LED_TOGGLE.c **** 		LED1_OFF();
  43:./Core/Src/LED_TOGGLE.c **** 		RED1 = 0;
  44:./Core/Src/LED_TOGGLE.c **** 	}
ARM GAS  C:\Users\ASUS\AppData\Local\Temp\cctml4Dx.s 			page 3


  45:./Core/Src/LED_TOGGLE.c **** }
  46:./Core/Src/LED_TOGGLE.c **** void YELLOW1_TOGGLE(){
  47:./Core/Src/LED_TOGGLE.c **** 	if (YELLOW1 == 0){
  48:./Core/Src/LED_TOGGLE.c **** 		HAL_GPIO_WritePin(LED_YELLOW1_GPIO_Port, LED_YELLOW1_Pin, SET);
  49:./Core/Src/LED_TOGGLE.c **** 		YELLOW1 = 1;
  50:./Core/Src/LED_TOGGLE.c **** 	}
  51:./Core/Src/LED_TOGGLE.c **** 	else{
  52:./Core/Src/LED_TOGGLE.c **** 		LED1_OFF();
  53:./Core/Src/LED_TOGGLE.c **** 		YELLOW1 = 0;
  54:./Core/Src/LED_TOGGLE.c **** 	}
  55:./Core/Src/LED_TOGGLE.c **** }
  56:./Core/Src/LED_TOGGLE.c **** void GREEN1_TOGGLE(){
  57:./Core/Src/LED_TOGGLE.c **** 	if (GREEN1 == 0){
  58:./Core/Src/LED_TOGGLE.c **** 		HAL_GPIO_WritePin(LED_GREEN1_GPIO_Port, LED_GREEN1_Pin, SET);
  59:./Core/Src/LED_TOGGLE.c **** 		GREEN1 = 1;
  60:./Core/Src/LED_TOGGLE.c **** 	}
  61:./Core/Src/LED_TOGGLE.c **** 	else{
  62:./Core/Src/LED_TOGGLE.c **** 		LED1_OFF();
  63:./Core/Src/LED_TOGGLE.c **** 		GREEN1 = 0;
  64:./Core/Src/LED_TOGGLE.c **** 	}
  65:./Core/Src/LED_TOGGLE.c **** }
  66:./Core/Src/LED_TOGGLE.c **** 
  67:./Core/Src/LED_TOGGLE.c **** 
  68:./Core/Src/LED_TOGGLE.c **** //GROUP LED2
  69:./Core/Src/LED_TOGGLE.c **** void LED2_OFF(){
  70:./Core/Src/LED_TOGGLE.c **** 	HAL_GPIO_WritePin(LED_RED2_GPIO_Port, LED_RED2_Pin, RESET);
  71:./Core/Src/LED_TOGGLE.c **** 	HAL_GPIO_WritePin(LED_YELLOW2_GPIO_Port, LED_YELLOW2_Pin, RESET);
  72:./Core/Src/LED_TOGGLE.c **** 	HAL_GPIO_WritePin(LED_GREEN2_GPIO_Port, LED_GREEN2_Pin, RESET);
  73:./Core/Src/LED_TOGGLE.c **** }
  74:./Core/Src/LED_TOGGLE.c **** 
  75:./Core/Src/LED_TOGGLE.c **** void RED2_TOGGLE(){
  76:./Core/Src/LED_TOGGLE.c **** 	if (RED2 == 0){
  77:./Core/Src/LED_TOGGLE.c **** 		HAL_GPIO_WritePin(LED_RED2_GPIO_Port, LED_RED2_Pin, SET);
  78:./Core/Src/LED_TOGGLE.c **** 		RED2 = 1;
  79:./Core/Src/LED_TOGGLE.c **** 	}
  80:./Core/Src/LED_TOGGLE.c **** 	else{
  81:./Core/Src/LED_TOGGLE.c **** 		LED2_OFF();
  82:./Core/Src/LED_TOGGLE.c **** 		RED2 = 0;
  83:./Core/Src/LED_TOGGLE.c **** 	}
  84:./Core/Src/LED_TOGGLE.c **** }
  85:./Core/Src/LED_TOGGLE.c **** void YELLOW2_TOGGLE(){
  86:./Core/Src/LED_TOGGLE.c **** 	if (YELLOW2 == 0){
  87:./Core/Src/LED_TOGGLE.c **** 		HAL_GPIO_WritePin(LED_YELLOW2_GPIO_Port, LED_YELLOW2_Pin, SET);
  88:./Core/Src/LED_TOGGLE.c **** 		YELLOW2 = 1;
  89:./Core/Src/LED_TOGGLE.c **** 	}
  90:./Core/Src/LED_TOGGLE.c **** 	else{
  91:./Core/Src/LED_TOGGLE.c **** 		LED2_OFF();
  92:./Core/Src/LED_TOGGLE.c **** 		YELLOW2 = 0;
  93:./Core/Src/LED_TOGGLE.c **** 	}
  94:./Core/Src/LED_TOGGLE.c **** }
  95:./Core/Src/LED_TOGGLE.c **** void GREEN2_TOGGLE(){
  96:./Core/Src/LED_TOGGLE.c **** 	if (GREEN2 == 0){
  97:./Core/Src/LED_TOGGLE.c **** 		HAL_GPIO_WritePin(LED_GREEN2_GPIO_Port, LED_GREEN2_Pin, SET);
  98:./Core/Src/LED_TOGGLE.c **** 		GREEN2 = 1;
  99:./Core/Src/LED_TOGGLE.c **** 	}
 100:./Core/Src/LED_TOGGLE.c **** 	else{
 101:./Core/Src/LED_TOGGLE.c **** 		LED2_OFF();
ARM GAS  C:\Users\ASUS\AppData\Local\Temp\cctml4Dx.s 			page 4


 102:./Core/Src/LED_TOGGLE.c **** 		GREEN2 = 0;
 103:./Core/Src/LED_TOGGLE.c **** 	}
 104:./Core/Src/LED_TOGGLE.c **** }
 105:./Core/Src/LED_TOGGLE.c **** 
 106:./Core/Src/LED_TOGGLE.c **** 
 107:./Core/Src/LED_TOGGLE.c **** //GROUP LED3
 108:./Core/Src/LED_TOGGLE.c **** void LED3_OFF(){
 109:./Core/Src/LED_TOGGLE.c **** 	HAL_GPIO_WritePin(LED_RED3_GPIO_Port, LED_RED3_Pin, RESET);
 110:./Core/Src/LED_TOGGLE.c **** 	HAL_GPIO_WritePin(LED_YELLOW3_GPIO_Port, LED_YELLOW3_Pin, RESET);
 111:./Core/Src/LED_TOGGLE.c **** 	HAL_GPIO_WritePin(LED_GREEN3_GPIO_Port, LED_GREEN3_Pin, RESET);
 112:./Core/Src/LED_TOGGLE.c **** }
 113:./Core/Src/LED_TOGGLE.c **** 
 114:./Core/Src/LED_TOGGLE.c **** void RED3_TOGGLE(){
 115:./Core/Src/LED_TOGGLE.c **** 	if (RED3 == 0){
 116:./Core/Src/LED_TOGGLE.c **** 		HAL_GPIO_WritePin(LED_RED3_GPIO_Port, LED_RED3_Pin, SET);
 117:./Core/Src/LED_TOGGLE.c **** 		RED3 = 1;
 118:./Core/Src/LED_TOGGLE.c **** 	}
 119:./Core/Src/LED_TOGGLE.c **** 	else{
 120:./Core/Src/LED_TOGGLE.c **** 		LED3_OFF();
 121:./Core/Src/LED_TOGGLE.c **** 		RED3 = 0;
 122:./Core/Src/LED_TOGGLE.c **** 	}
 123:./Core/Src/LED_TOGGLE.c **** }
 124:./Core/Src/LED_TOGGLE.c **** void YELLOW3_TOGGLE(){
 125:./Core/Src/LED_TOGGLE.c **** 	if (YELLOW3 == 0){
 126:./Core/Src/LED_TOGGLE.c **** 		HAL_GPIO_WritePin(LED_YELLOW3_GPIO_Port, LED_YELLOW3_Pin, SET);
 127:./Core/Src/LED_TOGGLE.c **** 		YELLOW3 = 1;
 128:./Core/Src/LED_TOGGLE.c **** 	}
 129:./Core/Src/LED_TOGGLE.c **** 	else{
 130:./Core/Src/LED_TOGGLE.c **** 		LED3_OFF();
 131:./Core/Src/LED_TOGGLE.c **** 		YELLOW3 = 0;
 132:./Core/Src/LED_TOGGLE.c **** 	}
 133:./Core/Src/LED_TOGGLE.c **** }
 134:./Core/Src/LED_TOGGLE.c **** void GREEN3_TOGGLE(){
 135:./Core/Src/LED_TOGGLE.c **** 	if (GREEN3 == 0){
 136:./Core/Src/LED_TOGGLE.c **** 		HAL_GPIO_WritePin(LED_GREEN3_GPIO_Port, LED_GREEN3_Pin, SET);
 137:./Core/Src/LED_TOGGLE.c **** 		GREEN3 = 1;
 138:./Core/Src/LED_TOGGLE.c **** 	}
 139:./Core/Src/LED_TOGGLE.c **** 	else{
 140:./Core/Src/LED_TOGGLE.c **** 		LED3_OFF();
 141:./Core/Src/LED_TOGGLE.c **** 		GREEN3 = 0;
 142:./Core/Src/LED_TOGGLE.c **** 	}
 143:./Core/Src/LED_TOGGLE.c **** }
 144:./Core/Src/LED_TOGGLE.c **** 
 145:./Core/Src/LED_TOGGLE.c **** 
 146:./Core/Src/LED_TOGGLE.c **** */
 147:./Core/Src/LED_TOGGLE.c **** 
 148:./Core/Src/LED_TOGGLE.c **** 
 149:./Core/Src/LED_TOGGLE.c **** 
 150:./Core/Src/LED_TOGGLE.c **** 
 151:./Core/Src/LED_TOGGLE.c **** 
 152:./Core/Src/LED_TOGGLE.c **** /////////////////////////
 153:./Core/Src/LED_TOGGLE.c **** //--- For DEMO --------//
 154:./Core/Src/LED_TOGGLE.c **** ////////////////////////
 155:./Core/Src/LED_TOGGLE.c **** 
 156:./Core/Src/LED_TOGGLE.c **** 
 157:./Core/Src/LED_TOGGLE.c **** 
 158:./Core/Src/LED_TOGGLE.c **** // GROUP LED1;
ARM GAS  C:\Users\ASUS\AppData\Local\Temp\cctml4Dx.s 			page 5


 159:./Core/Src/LED_TOGGLE.c **** void LED1_OFF(){
  90              		.loc 1 159 16
  91              		.cfi_startproc
  92              		@ args = 0, pretend = 0, frame = 0
  93              		@ frame_needed = 1, uses_anonymous_args = 0
  94 0000 80B5     		push	{r7, lr}
  95              		.cfi_def_cfa_offset 8
  96              		.cfi_offset 7, -8
  97              		.cfi_offset 14, -4
  98 0002 00AF     		add	r7, sp, #0
  99              		.cfi_def_cfa_register 7
 160:./Core/Src/LED_TOGGLE.c **** 	HAL_GPIO_WritePin(LED1A_GPIO_Port, LED1A_Pin, RESET);
 100              		.loc 1 160 2
 101 0004 0022     		movs	r2, #0
 102 0006 4FF48061 		mov	r1, #1024
 103 000a 0548     		ldr	r0, .L2
 104 000c FFF7FEFF 		bl	HAL_GPIO_WritePin
 161:./Core/Src/LED_TOGGLE.c **** 	HAL_GPIO_WritePin(LED1B_GPIO_Port, LED1B_Pin, RESET);
 105              		.loc 1 161 2
 106 0010 0022     		movs	r2, #0
 107 0012 0821     		movs	r1, #8
 108 0014 0348     		ldr	r0, .L2+4
 109 0016 FFF7FEFF 		bl	HAL_GPIO_WritePin
 162:./Core/Src/LED_TOGGLE.c **** }
 110              		.loc 1 162 1
 111 001a 00BF     		nop
 112 001c 80BD     		pop	{r7, pc}
 113              	.L3:
 114 001e 00BF     		.align	2
 115              	.L2:
 116 0020 00080140 		.word	1073809408
 117 0024 000C0140 		.word	1073810432
 118              		.cfi_endproc
 119              	.LFE65:
 121              		.section	.text.RED1_TOGGLE,"ax",%progbits
 122              		.align	1
 123              		.global	RED1_TOGGLE
 124              		.syntax unified
 125              		.thumb
 126              		.thumb_func
 128              	RED1_TOGGLE:
 129              	.LFB66:
 163:./Core/Src/LED_TOGGLE.c **** 
 164:./Core/Src/LED_TOGGLE.c **** void RED1_TOGGLE(){
 130              		.loc 1 164 19
 131              		.cfi_startproc
 132              		@ args = 0, pretend = 0, frame = 0
 133              		@ frame_needed = 1, uses_anonymous_args = 0
 134 0000 80B5     		push	{r7, lr}
 135              		.cfi_def_cfa_offset 8
 136              		.cfi_offset 7, -8
 137              		.cfi_offset 14, -4
 138 0002 00AF     		add	r7, sp, #0
 139              		.cfi_def_cfa_register 7
 165:./Core/Src/LED_TOGGLE.c **** 	if (RED1 == 0){
 140              		.loc 1 165 11
 141 0004 0C4B     		ldr	r3, .L8
ARM GAS  C:\Users\ASUS\AppData\Local\Temp\cctml4Dx.s 			page 6


 142 0006 1B68     		ldr	r3, [r3]
 143              		.loc 1 165 5
 144 0008 002B     		cmp	r3, #0
 145 000a 0ED1     		bne	.L5
 166:./Core/Src/LED_TOGGLE.c **** 		HAL_GPIO_WritePin(LED1A_GPIO_Port, LED1A_Pin, SET);
 146              		.loc 1 166 3
 147 000c 0122     		movs	r2, #1
 148 000e 4FF48061 		mov	r1, #1024
 149 0012 0A48     		ldr	r0, .L8+4
 150 0014 FFF7FEFF 		bl	HAL_GPIO_WritePin
 167:./Core/Src/LED_TOGGLE.c **** 		HAL_GPIO_WritePin(LED1B_GPIO_Port, LED1B_Pin, RESET);
 151              		.loc 1 167 3
 152 0018 0022     		movs	r2, #0
 153 001a 0821     		movs	r1, #8
 154 001c 0848     		ldr	r0, .L8+8
 155 001e FFF7FEFF 		bl	HAL_GPIO_WritePin
 168:./Core/Src/LED_TOGGLE.c **** 		RED1 = 1;
 156              		.loc 1 168 8
 157 0022 054B     		ldr	r3, .L8
 158 0024 0122     		movs	r2, #1
 159 0026 1A60     		str	r2, [r3]
 169:./Core/Src/LED_TOGGLE.c **** 	}
 170:./Core/Src/LED_TOGGLE.c **** 	else{
 171:./Core/Src/LED_TOGGLE.c **** 		LED1_OFF();
 172:./Core/Src/LED_TOGGLE.c **** 		RED1 = 0;
 173:./Core/Src/LED_TOGGLE.c **** 	}
 174:./Core/Src/LED_TOGGLE.c **** }
 160              		.loc 1 174 1
 161 0028 04E0     		b	.L7
 162              	.L5:
 171:./Core/Src/LED_TOGGLE.c **** 		RED1 = 0;
 163              		.loc 1 171 3
 164 002a FFF7FEFF 		bl	LED1_OFF
 172:./Core/Src/LED_TOGGLE.c **** 	}
 165              		.loc 1 172 8
 166 002e 024B     		ldr	r3, .L8
 167 0030 0022     		movs	r2, #0
 168 0032 1A60     		str	r2, [r3]
 169              	.L7:
 170              		.loc 1 174 1
 171 0034 00BF     		nop
 172 0036 80BD     		pop	{r7, pc}
 173              	.L9:
 174              		.align	2
 175              	.L8:
 176 0038 00000000 		.word	RED1
 177 003c 00080140 		.word	1073809408
 178 0040 000C0140 		.word	1073810432
 179              		.cfi_endproc
 180              	.LFE66:
 182              		.section	.text.YELLOW1_TOGGLE,"ax",%progbits
 183              		.align	1
 184              		.global	YELLOW1_TOGGLE
 185              		.syntax unified
 186              		.thumb
 187              		.thumb_func
 189              	YELLOW1_TOGGLE:
ARM GAS  C:\Users\ASUS\AppData\Local\Temp\cctml4Dx.s 			page 7


 190              	.LFB67:
 175:./Core/Src/LED_TOGGLE.c **** void YELLOW1_TOGGLE(){
 191              		.loc 1 175 22
 192              		.cfi_startproc
 193              		@ args = 0, pretend = 0, frame = 0
 194              		@ frame_needed = 1, uses_anonymous_args = 0
 195 0000 80B5     		push	{r7, lr}
 196              		.cfi_def_cfa_offset 8
 197              		.cfi_offset 7, -8
 198              		.cfi_offset 14, -4
 199 0002 00AF     		add	r7, sp, #0
 200              		.cfi_def_cfa_register 7
 176:./Core/Src/LED_TOGGLE.c **** 	if (YELLOW1 == 0){
 201              		.loc 1 176 14
 202 0004 0C4B     		ldr	r3, .L14
 203 0006 1B68     		ldr	r3, [r3]
 204              		.loc 1 176 5
 205 0008 002B     		cmp	r3, #0
 206 000a 0ED1     		bne	.L11
 177:./Core/Src/LED_TOGGLE.c **** 		HAL_GPIO_WritePin(LED1A_GPIO_Port, LED1A_Pin, SET);
 207              		.loc 1 177 3
 208 000c 0122     		movs	r2, #1
 209 000e 4FF48061 		mov	r1, #1024
 210 0012 0A48     		ldr	r0, .L14+4
 211 0014 FFF7FEFF 		bl	HAL_GPIO_WritePin
 178:./Core/Src/LED_TOGGLE.c **** 		HAL_GPIO_WritePin(LED1B_GPIO_Port, LED1B_Pin, SET);
 212              		.loc 1 178 3
 213 0018 0122     		movs	r2, #1
 214 001a 0821     		movs	r1, #8
 215 001c 0848     		ldr	r0, .L14+8
 216 001e FFF7FEFF 		bl	HAL_GPIO_WritePin
 179:./Core/Src/LED_TOGGLE.c **** 		YELLOW1 = 1;
 217              		.loc 1 179 11
 218 0022 054B     		ldr	r3, .L14
 219 0024 0122     		movs	r2, #1
 220 0026 1A60     		str	r2, [r3]
 180:./Core/Src/LED_TOGGLE.c **** 	}
 181:./Core/Src/LED_TOGGLE.c **** 	else{
 182:./Core/Src/LED_TOGGLE.c **** 		LED1_OFF();
 183:./Core/Src/LED_TOGGLE.c **** 		YELLOW1 = 0;
 184:./Core/Src/LED_TOGGLE.c **** 	}
 185:./Core/Src/LED_TOGGLE.c **** }
 221              		.loc 1 185 1
 222 0028 04E0     		b	.L13
 223              	.L11:
 182:./Core/Src/LED_TOGGLE.c **** 		YELLOW1 = 0;
 224              		.loc 1 182 3
 225 002a FFF7FEFF 		bl	LED1_OFF
 183:./Core/Src/LED_TOGGLE.c **** 	}
 226              		.loc 1 183 11
 227 002e 024B     		ldr	r3, .L14
 228 0030 0022     		movs	r2, #0
 229 0032 1A60     		str	r2, [r3]
 230              	.L13:
 231              		.loc 1 185 1
 232 0034 00BF     		nop
 233 0036 80BD     		pop	{r7, pc}
ARM GAS  C:\Users\ASUS\AppData\Local\Temp\cctml4Dx.s 			page 8


 234              	.L15:
 235              		.align	2
 236              	.L14:
 237 0038 00000000 		.word	YELLOW1
 238 003c 00080140 		.word	1073809408
 239 0040 000C0140 		.word	1073810432
 240              		.cfi_endproc
 241              	.LFE67:
 243              		.section	.text.GREEN1_TOGGLE,"ax",%progbits
 244              		.align	1
 245              		.global	GREEN1_TOGGLE
 246              		.syntax unified
 247              		.thumb
 248              		.thumb_func
 250              	GREEN1_TOGGLE:
 251              	.LFB68:
 186:./Core/Src/LED_TOGGLE.c **** void GREEN1_TOGGLE(){
 252              		.loc 1 186 21
 253              		.cfi_startproc
 254              		@ args = 0, pretend = 0, frame = 0
 255              		@ frame_needed = 1, uses_anonymous_args = 0
 256 0000 80B5     		push	{r7, lr}
 257              		.cfi_def_cfa_offset 8
 258              		.cfi_offset 7, -8
 259              		.cfi_offset 14, -4
 260 0002 00AF     		add	r7, sp, #0
 261              		.cfi_def_cfa_register 7
 187:./Core/Src/LED_TOGGLE.c **** 	if (GREEN1 == 0){
 262              		.loc 1 187 13
 263 0004 0C4B     		ldr	r3, .L20
 264 0006 1B68     		ldr	r3, [r3]
 265              		.loc 1 187 5
 266 0008 002B     		cmp	r3, #0
 267 000a 0ED1     		bne	.L17
 188:./Core/Src/LED_TOGGLE.c **** 		HAL_GPIO_WritePin(LED1A_GPIO_Port, LED1A_Pin, RESET);
 268              		.loc 1 188 3
 269 000c 0022     		movs	r2, #0
 270 000e 4FF48061 		mov	r1, #1024
 271 0012 0A48     		ldr	r0, .L20+4
 272 0014 FFF7FEFF 		bl	HAL_GPIO_WritePin
 189:./Core/Src/LED_TOGGLE.c **** 		HAL_GPIO_WritePin(LED1B_GPIO_Port, LED1B_Pin, SET);
 273              		.loc 1 189 3
 274 0018 0122     		movs	r2, #1
 275 001a 0821     		movs	r1, #8
 276 001c 0848     		ldr	r0, .L20+8
 277 001e FFF7FEFF 		bl	HAL_GPIO_WritePin
 190:./Core/Src/LED_TOGGLE.c **** 		GREEN1 = 1;
 278              		.loc 1 190 10
 279 0022 054B     		ldr	r3, .L20
 280 0024 0122     		movs	r2, #1
 281 0026 1A60     		str	r2, [r3]
 191:./Core/Src/LED_TOGGLE.c **** 	}
 192:./Core/Src/LED_TOGGLE.c **** 	else{
 193:./Core/Src/LED_TOGGLE.c **** 		LED1_OFF();
 194:./Core/Src/LED_TOGGLE.c **** 		GREEN1 = 0;
 195:./Core/Src/LED_TOGGLE.c **** 	}
 196:./Core/Src/LED_TOGGLE.c **** }
ARM GAS  C:\Users\ASUS\AppData\Local\Temp\cctml4Dx.s 			page 9


 282              		.loc 1 196 1
 283 0028 04E0     		b	.L19
 284              	.L17:
 193:./Core/Src/LED_TOGGLE.c **** 		GREEN1 = 0;
 285              		.loc 1 193 3
 286 002a FFF7FEFF 		bl	LED1_OFF
 194:./Core/Src/LED_TOGGLE.c **** 	}
 287              		.loc 1 194 10
 288 002e 024B     		ldr	r3, .L20
 289 0030 0022     		movs	r2, #0
 290 0032 1A60     		str	r2, [r3]
 291              	.L19:
 292              		.loc 1 196 1
 293 0034 00BF     		nop
 294 0036 80BD     		pop	{r7, pc}
 295              	.L21:
 296              		.align	2
 297              	.L20:
 298 0038 00000000 		.word	GREEN1
 299 003c 00080140 		.word	1073809408
 300 0040 000C0140 		.word	1073810432
 301              		.cfi_endproc
 302              	.LFE68:
 304              		.section	.text.LED2_OFF,"ax",%progbits
 305              		.align	1
 306              		.global	LED2_OFF
 307              		.syntax unified
 308              		.thumb
 309              		.thumb_func
 311              	LED2_OFF:
 312              	.LFB69:
 197:./Core/Src/LED_TOGGLE.c **** 
 198:./Core/Src/LED_TOGGLE.c **** 
 199:./Core/Src/LED_TOGGLE.c **** //GROUP LED2
 200:./Core/Src/LED_TOGGLE.c **** void LED2_OFF(){
 313              		.loc 1 200 16
 314              		.cfi_startproc
 315              		@ args = 0, pretend = 0, frame = 0
 316              		@ frame_needed = 1, uses_anonymous_args = 0
 317 0000 80B5     		push	{r7, lr}
 318              		.cfi_def_cfa_offset 8
 319              		.cfi_offset 7, -8
 320              		.cfi_offset 14, -4
 321 0002 00AF     		add	r7, sp, #0
 322              		.cfi_def_cfa_register 7
 201:./Core/Src/LED_TOGGLE.c **** 	HAL_GPIO_WritePin(LED2A_GPIO_Port, LED2A_Pin, RESET);
 323              		.loc 1 201 2
 324 0004 0022     		movs	r2, #0
 325 0006 2021     		movs	r1, #32
 326 0008 0448     		ldr	r0, .L23
 327 000a FFF7FEFF 		bl	HAL_GPIO_WritePin
 202:./Core/Src/LED_TOGGLE.c **** 	HAL_GPIO_WritePin(LED2B_GPIO_Port, LED2B_Pin, RESET);
 328              		.loc 1 202 2
 329 000e 0022     		movs	r2, #0
 330 0010 1021     		movs	r1, #16
 331 0012 0248     		ldr	r0, .L23
 332 0014 FFF7FEFF 		bl	HAL_GPIO_WritePin
ARM GAS  C:\Users\ASUS\AppData\Local\Temp\cctml4Dx.s 			page 10


 203:./Core/Src/LED_TOGGLE.c **** }
 333              		.loc 1 203 1
 334 0018 00BF     		nop
 335 001a 80BD     		pop	{r7, pc}
 336              	.L24:
 337              		.align	2
 338              	.L23:
 339 001c 000C0140 		.word	1073810432
 340              		.cfi_endproc
 341              	.LFE69:
 343              		.section	.text.RED2_TOGGLE,"ax",%progbits
 344              		.align	1
 345              		.global	RED2_TOGGLE
 346              		.syntax unified
 347              		.thumb
 348              		.thumb_func
 350              	RED2_TOGGLE:
 351              	.LFB70:
 204:./Core/Src/LED_TOGGLE.c **** 
 205:./Core/Src/LED_TOGGLE.c **** void RED2_TOGGLE(){
 352              		.loc 1 205 19
 353              		.cfi_startproc
 354              		@ args = 0, pretend = 0, frame = 0
 355              		@ frame_needed = 1, uses_anonymous_args = 0
 356 0000 80B5     		push	{r7, lr}
 357              		.cfi_def_cfa_offset 8
 358              		.cfi_offset 7, -8
 359              		.cfi_offset 14, -4
 360 0002 00AF     		add	r7, sp, #0
 361              		.cfi_def_cfa_register 7
 206:./Core/Src/LED_TOGGLE.c **** 	if (RED2 == 0){
 362              		.loc 1 206 11
 363 0004 0C4B     		ldr	r3, .L29
 364 0006 1B68     		ldr	r3, [r3]
 365              		.loc 1 206 5
 366 0008 002B     		cmp	r3, #0
 367 000a 0DD1     		bne	.L26
 207:./Core/Src/LED_TOGGLE.c **** 		HAL_GPIO_WritePin(LED2A_GPIO_Port, LED2A_Pin, SET);
 368              		.loc 1 207 3
 369 000c 0122     		movs	r2, #1
 370 000e 2021     		movs	r1, #32
 371 0010 0A48     		ldr	r0, .L29+4
 372 0012 FFF7FEFF 		bl	HAL_GPIO_WritePin
 208:./Core/Src/LED_TOGGLE.c **** 		HAL_GPIO_WritePin(LED2B_GPIO_Port, LED2B_Pin, RESET);
 373              		.loc 1 208 3
 374 0016 0022     		movs	r2, #0
 375 0018 1021     		movs	r1, #16
 376 001a 0848     		ldr	r0, .L29+4
 377 001c FFF7FEFF 		bl	HAL_GPIO_WritePin
 209:./Core/Src/LED_TOGGLE.c **** 		RED2 = 1;
 378              		.loc 1 209 8
 379 0020 054B     		ldr	r3, .L29
 380 0022 0122     		movs	r2, #1
 381 0024 1A60     		str	r2, [r3]
 210:./Core/Src/LED_TOGGLE.c **** 	}
 211:./Core/Src/LED_TOGGLE.c **** 	else{
 212:./Core/Src/LED_TOGGLE.c **** 		LED2_OFF();
ARM GAS  C:\Users\ASUS\AppData\Local\Temp\cctml4Dx.s 			page 11


 213:./Core/Src/LED_TOGGLE.c **** 		RED2 = 0;
 214:./Core/Src/LED_TOGGLE.c **** 	}
 215:./Core/Src/LED_TOGGLE.c **** }
 382              		.loc 1 215 1
 383 0026 04E0     		b	.L28
 384              	.L26:
 212:./Core/Src/LED_TOGGLE.c **** 		RED2 = 0;
 385              		.loc 1 212 3
 386 0028 FFF7FEFF 		bl	LED2_OFF
 213:./Core/Src/LED_TOGGLE.c **** 	}
 387              		.loc 1 213 8
 388 002c 024B     		ldr	r3, .L29
 389 002e 0022     		movs	r2, #0
 390 0030 1A60     		str	r2, [r3]
 391              	.L28:
 392              		.loc 1 215 1
 393 0032 00BF     		nop
 394 0034 80BD     		pop	{r7, pc}
 395              	.L30:
 396 0036 00BF     		.align	2
 397              	.L29:
 398 0038 00000000 		.word	RED2
 399 003c 000C0140 		.word	1073810432
 400              		.cfi_endproc
 401              	.LFE70:
 403              		.section	.text.YELLOW2_TOGGLE,"ax",%progbits
 404              		.align	1
 405              		.global	YELLOW2_TOGGLE
 406              		.syntax unified
 407              		.thumb
 408              		.thumb_func
 410              	YELLOW2_TOGGLE:
 411              	.LFB71:
 216:./Core/Src/LED_TOGGLE.c **** void YELLOW2_TOGGLE(){
 412              		.loc 1 216 22
 413              		.cfi_startproc
 414              		@ args = 0, pretend = 0, frame = 0
 415              		@ frame_needed = 1, uses_anonymous_args = 0
 416 0000 80B5     		push	{r7, lr}
 417              		.cfi_def_cfa_offset 8
 418              		.cfi_offset 7, -8
 419              		.cfi_offset 14, -4
 420 0002 00AF     		add	r7, sp, #0
 421              		.cfi_def_cfa_register 7
 217:./Core/Src/LED_TOGGLE.c **** 	if (YELLOW2 == 0){
 422              		.loc 1 217 14
 423 0004 0C4B     		ldr	r3, .L35
 424 0006 1B68     		ldr	r3, [r3]
 425              		.loc 1 217 5
 426 0008 002B     		cmp	r3, #0
 427 000a 0DD1     		bne	.L32
 218:./Core/Src/LED_TOGGLE.c **** 		HAL_GPIO_WritePin(LED2A_GPIO_Port, LED2A_Pin, SET);
 428              		.loc 1 218 3
 429 000c 0122     		movs	r2, #1
 430 000e 2021     		movs	r1, #32
 431 0010 0A48     		ldr	r0, .L35+4
 432 0012 FFF7FEFF 		bl	HAL_GPIO_WritePin
ARM GAS  C:\Users\ASUS\AppData\Local\Temp\cctml4Dx.s 			page 12


 219:./Core/Src/LED_TOGGLE.c **** 		HAL_GPIO_WritePin(LED2B_GPIO_Port, LED2B_Pin, SET);
 433              		.loc 1 219 3
 434 0016 0122     		movs	r2, #1
 435 0018 1021     		movs	r1, #16
 436 001a 0848     		ldr	r0, .L35+4
 437 001c FFF7FEFF 		bl	HAL_GPIO_WritePin
 220:./Core/Src/LED_TOGGLE.c **** 		YELLOW2 = 1;
 438              		.loc 1 220 11
 439 0020 054B     		ldr	r3, .L35
 440 0022 0122     		movs	r2, #1
 441 0024 1A60     		str	r2, [r3]
 221:./Core/Src/LED_TOGGLE.c **** 	}
 222:./Core/Src/LED_TOGGLE.c **** 	else{
 223:./Core/Src/LED_TOGGLE.c **** 		LED2_OFF();
 224:./Core/Src/LED_TOGGLE.c **** 		YELLOW2 = 0;
 225:./Core/Src/LED_TOGGLE.c **** 	}
 226:./Core/Src/LED_TOGGLE.c **** }
 442              		.loc 1 226 1
 443 0026 04E0     		b	.L34
 444              	.L32:
 223:./Core/Src/LED_TOGGLE.c **** 		YELLOW2 = 0;
 445              		.loc 1 223 3
 446 0028 FFF7FEFF 		bl	LED2_OFF
 224:./Core/Src/LED_TOGGLE.c **** 	}
 447              		.loc 1 224 11
 448 002c 024B     		ldr	r3, .L35
 449 002e 0022     		movs	r2, #0
 450 0030 1A60     		str	r2, [r3]
 451              	.L34:
 452              		.loc 1 226 1
 453 0032 00BF     		nop
 454 0034 80BD     		pop	{r7, pc}
 455              	.L36:
 456 0036 00BF     		.align	2
 457              	.L35:
 458 0038 00000000 		.word	YELLOW2
 459 003c 000C0140 		.word	1073810432
 460              		.cfi_endproc
 461              	.LFE71:
 463              		.section	.text.GREEN2_TOGGLE,"ax",%progbits
 464              		.align	1
 465              		.global	GREEN2_TOGGLE
 466              		.syntax unified
 467              		.thumb
 468              		.thumb_func
 470              	GREEN2_TOGGLE:
 471              	.LFB72:
 227:./Core/Src/LED_TOGGLE.c **** void GREEN2_TOGGLE(){
 472              		.loc 1 227 21
 473              		.cfi_startproc
 474              		@ args = 0, pretend = 0, frame = 0
 475              		@ frame_needed = 1, uses_anonymous_args = 0
 476 0000 80B5     		push	{r7, lr}
 477              		.cfi_def_cfa_offset 8
 478              		.cfi_offset 7, -8
 479              		.cfi_offset 14, -4
 480 0002 00AF     		add	r7, sp, #0
ARM GAS  C:\Users\ASUS\AppData\Local\Temp\cctml4Dx.s 			page 13


 481              		.cfi_def_cfa_register 7
 228:./Core/Src/LED_TOGGLE.c **** 	if (GREEN2 == 0){
 482              		.loc 1 228 13
 483 0004 0C4B     		ldr	r3, .L41
 484 0006 1B68     		ldr	r3, [r3]
 485              		.loc 1 228 5
 486 0008 002B     		cmp	r3, #0
 487 000a 0DD1     		bne	.L38
 229:./Core/Src/LED_TOGGLE.c **** 		HAL_GPIO_WritePin(LED2A_GPIO_Port, LED2A_Pin, RESET);
 488              		.loc 1 229 3
 489 000c 0022     		movs	r2, #0
 490 000e 2021     		movs	r1, #32
 491 0010 0A48     		ldr	r0, .L41+4
 492 0012 FFF7FEFF 		bl	HAL_GPIO_WritePin
 230:./Core/Src/LED_TOGGLE.c **** 		HAL_GPIO_WritePin(LED2B_GPIO_Port, LED2B_Pin, SET);
 493              		.loc 1 230 3
 494 0016 0122     		movs	r2, #1
 495 0018 1021     		movs	r1, #16
 496 001a 0848     		ldr	r0, .L41+4
 497 001c FFF7FEFF 		bl	HAL_GPIO_WritePin
 231:./Core/Src/LED_TOGGLE.c **** 		GREEN2 = 1;
 498              		.loc 1 231 10
 499 0020 054B     		ldr	r3, .L41
 500 0022 0122     		movs	r2, #1
 501 0024 1A60     		str	r2, [r3]
 232:./Core/Src/LED_TOGGLE.c **** 	}
 233:./Core/Src/LED_TOGGLE.c **** 	else{
 234:./Core/Src/LED_TOGGLE.c **** 		LED2_OFF();
 235:./Core/Src/LED_TOGGLE.c **** 		GREEN2 = 0;
 236:./Core/Src/LED_TOGGLE.c **** 	}
 237:./Core/Src/LED_TOGGLE.c **** }
 502              		.loc 1 237 1
 503 0026 04E0     		b	.L40
 504              	.L38:
 234:./Core/Src/LED_TOGGLE.c **** 		GREEN2 = 0;
 505              		.loc 1 234 3
 506 0028 FFF7FEFF 		bl	LED2_OFF
 235:./Core/Src/LED_TOGGLE.c **** 	}
 507              		.loc 1 235 10
 508 002c 024B     		ldr	r3, .L41
 509 002e 0022     		movs	r2, #0
 510 0030 1A60     		str	r2, [r3]
 511              	.L40:
 512              		.loc 1 237 1
 513 0032 00BF     		nop
 514 0034 80BD     		pop	{r7, pc}
 515              	.L42:
 516 0036 00BF     		.align	2
 517              	.L41:
 518 0038 00000000 		.word	GREEN2
 519 003c 000C0140 		.word	1073810432
 520              		.cfi_endproc
 521              	.LFE72:
 523              		.section	.text.LED3_OFF,"ax",%progbits
 524              		.align	1
 525              		.global	LED3_OFF
 526              		.syntax unified
ARM GAS  C:\Users\ASUS\AppData\Local\Temp\cctml4Dx.s 			page 14


 527              		.thumb
 528              		.thumb_func
 530              	LED3_OFF:
 531              	.LFB73:
 238:./Core/Src/LED_TOGGLE.c **** 
 239:./Core/Src/LED_TOGGLE.c **** 
 240:./Core/Src/LED_TOGGLE.c **** //GROUP LED3
 241:./Core/Src/LED_TOGGLE.c **** void LED3_OFF(){
 532              		.loc 1 241 16
 533              		.cfi_startproc
 534              		@ args = 0, pretend = 0, frame = 0
 535              		@ frame_needed = 1, uses_anonymous_args = 0
 536 0000 80B5     		push	{r7, lr}
 537              		.cfi_def_cfa_offset 8
 538              		.cfi_offset 7, -8
 539              		.cfi_offset 14, -4
 540 0002 00AF     		add	r7, sp, #0
 541              		.cfi_def_cfa_register 7
 242:./Core/Src/LED_TOGGLE.c **** 	HAL_GPIO_WritePin(LED3A_GPIO_Port, LED3A_Pin, RESET);
 542              		.loc 1 242 2
 543 0004 0022     		movs	r2, #0
 544 0006 4FF48061 		mov	r1, #1024
 545 000a 0548     		ldr	r0, .L44
 546 000c FFF7FEFF 		bl	HAL_GPIO_WritePin
 243:./Core/Src/LED_TOGGLE.c **** 	HAL_GPIO_WritePin(LED3B_GPIO_Port, LED3B_Pin, RESET);
 547              		.loc 1 243 2
 548 0010 0022     		movs	r2, #0
 549 0012 4FF48071 		mov	r1, #256
 550 0016 0348     		ldr	r0, .L44+4
 551 0018 FFF7FEFF 		bl	HAL_GPIO_WritePin
 244:./Core/Src/LED_TOGGLE.c **** }
 552              		.loc 1 244 1
 553 001c 00BF     		nop
 554 001e 80BD     		pop	{r7, pc}
 555              	.L45:
 556              		.align	2
 557              	.L44:
 558 0020 000C0140 		.word	1073810432
 559 0024 00080140 		.word	1073809408
 560              		.cfi_endproc
 561              	.LFE73:
 563              		.section	.text.RED3_TOGGLE,"ax",%progbits
 564              		.align	1
 565              		.global	RED3_TOGGLE
 566              		.syntax unified
 567              		.thumb
 568              		.thumb_func
 570              	RED3_TOGGLE:
 571              	.LFB74:
 245:./Core/Src/LED_TOGGLE.c **** 
 246:./Core/Src/LED_TOGGLE.c **** void RED3_TOGGLE(){
 572              		.loc 1 246 19
 573              		.cfi_startproc
 574              		@ args = 0, pretend = 0, frame = 0
 575              		@ frame_needed = 1, uses_anonymous_args = 0
 576 0000 80B5     		push	{r7, lr}
 577              		.cfi_def_cfa_offset 8
ARM GAS  C:\Users\ASUS\AppData\Local\Temp\cctml4Dx.s 			page 15


 578              		.cfi_offset 7, -8
 579              		.cfi_offset 14, -4
 580 0002 00AF     		add	r7, sp, #0
 581              		.cfi_def_cfa_register 7
 247:./Core/Src/LED_TOGGLE.c **** 	if (RED3 == 0){
 582              		.loc 1 247 11
 583 0004 0D4B     		ldr	r3, .L50
 584 0006 1B68     		ldr	r3, [r3]
 585              		.loc 1 247 5
 586 0008 002B     		cmp	r3, #0
 587 000a 0FD1     		bne	.L47
 248:./Core/Src/LED_TOGGLE.c **** 		HAL_GPIO_WritePin(LED3A_GPIO_Port, LED3A_Pin, SET);
 588              		.loc 1 248 3
 589 000c 0122     		movs	r2, #1
 590 000e 4FF48061 		mov	r1, #1024
 591 0012 0B48     		ldr	r0, .L50+4
 592 0014 FFF7FEFF 		bl	HAL_GPIO_WritePin
 249:./Core/Src/LED_TOGGLE.c **** 		HAL_GPIO_WritePin(LED3B_GPIO_Port, LED3B_Pin, RESET);
 593              		.loc 1 249 3
 594 0018 0022     		movs	r2, #0
 595 001a 4FF48071 		mov	r1, #256
 596 001e 0948     		ldr	r0, .L50+8
 597 0020 FFF7FEFF 		bl	HAL_GPIO_WritePin
 250:./Core/Src/LED_TOGGLE.c **** 		RED3 = 1;
 598              		.loc 1 250 8
 599 0024 054B     		ldr	r3, .L50
 600 0026 0122     		movs	r2, #1
 601 0028 1A60     		str	r2, [r3]
 251:./Core/Src/LED_TOGGLE.c **** 	}
 252:./Core/Src/LED_TOGGLE.c **** 	else{
 253:./Core/Src/LED_TOGGLE.c **** 		LED3_OFF();
 254:./Core/Src/LED_TOGGLE.c **** 		RED3 = 0;
 255:./Core/Src/LED_TOGGLE.c **** 	}
 256:./Core/Src/LED_TOGGLE.c **** }
 602              		.loc 1 256 1
 603 002a 04E0     		b	.L49
 604              	.L47:
 253:./Core/Src/LED_TOGGLE.c **** 		RED3 = 0;
 605              		.loc 1 253 3
 606 002c FFF7FEFF 		bl	LED3_OFF
 254:./Core/Src/LED_TOGGLE.c **** 	}
 607              		.loc 1 254 8
 608 0030 024B     		ldr	r3, .L50
 609 0032 0022     		movs	r2, #0
 610 0034 1A60     		str	r2, [r3]
 611              	.L49:
 612              		.loc 1 256 1
 613 0036 00BF     		nop
 614 0038 80BD     		pop	{r7, pc}
 615              	.L51:
 616 003a 00BF     		.align	2
 617              	.L50:
 618 003c 00000000 		.word	RED3
 619 0040 000C0140 		.word	1073810432
 620 0044 00080140 		.word	1073809408
 621              		.cfi_endproc
 622              	.LFE74:
ARM GAS  C:\Users\ASUS\AppData\Local\Temp\cctml4Dx.s 			page 16


 624              		.section	.text.YELLOW3_TOGGLE,"ax",%progbits
 625              		.align	1
 626              		.global	YELLOW3_TOGGLE
 627              		.syntax unified
 628              		.thumb
 629              		.thumb_func
 631              	YELLOW3_TOGGLE:
 632              	.LFB75:
 257:./Core/Src/LED_TOGGLE.c **** void YELLOW3_TOGGLE(){
 633              		.loc 1 257 22
 634              		.cfi_startproc
 635              		@ args = 0, pretend = 0, frame = 0
 636              		@ frame_needed = 1, uses_anonymous_args = 0
 637 0000 80B5     		push	{r7, lr}
 638              		.cfi_def_cfa_offset 8
 639              		.cfi_offset 7, -8
 640              		.cfi_offset 14, -4
 641 0002 00AF     		add	r7, sp, #0
 642              		.cfi_def_cfa_register 7
 258:./Core/Src/LED_TOGGLE.c **** 	if (YELLOW3 == 0){
 643              		.loc 1 258 14
 644 0004 0D4B     		ldr	r3, .L56
 645 0006 1B68     		ldr	r3, [r3]
 646              		.loc 1 258 5
 647 0008 002B     		cmp	r3, #0
 648 000a 0FD1     		bne	.L53
 259:./Core/Src/LED_TOGGLE.c **** 		HAL_GPIO_WritePin(LED3A_GPIO_Port, LED3A_Pin, SET);
 649              		.loc 1 259 3
 650 000c 0122     		movs	r2, #1
 651 000e 4FF48061 		mov	r1, #1024
 652 0012 0B48     		ldr	r0, .L56+4
 653 0014 FFF7FEFF 		bl	HAL_GPIO_WritePin
 260:./Core/Src/LED_TOGGLE.c **** 		HAL_GPIO_WritePin(LED3B_GPIO_Port, LED3B_Pin, SET);
 654              		.loc 1 260 3
 655 0018 0122     		movs	r2, #1
 656 001a 4FF48071 		mov	r1, #256
 657 001e 0948     		ldr	r0, .L56+8
 658 0020 FFF7FEFF 		bl	HAL_GPIO_WritePin
 261:./Core/Src/LED_TOGGLE.c **** 		YELLOW3 = 1;
 659              		.loc 1 261 11
 660 0024 054B     		ldr	r3, .L56
 661 0026 0122     		movs	r2, #1
 662 0028 1A60     		str	r2, [r3]
 262:./Core/Src/LED_TOGGLE.c **** 	}
 263:./Core/Src/LED_TOGGLE.c **** 	else{
 264:./Core/Src/LED_TOGGLE.c **** 		LED3_OFF();
 265:./Core/Src/LED_TOGGLE.c **** 		YELLOW3 = 0;
 266:./Core/Src/LED_TOGGLE.c **** 	}
 267:./Core/Src/LED_TOGGLE.c **** }
 663              		.loc 1 267 1
 664 002a 04E0     		b	.L55
 665              	.L53:
 264:./Core/Src/LED_TOGGLE.c **** 		YELLOW3 = 0;
 666              		.loc 1 264 3
 667 002c FFF7FEFF 		bl	LED3_OFF
 265:./Core/Src/LED_TOGGLE.c **** 	}
 668              		.loc 1 265 11
ARM GAS  C:\Users\ASUS\AppData\Local\Temp\cctml4Dx.s 			page 17


 669 0030 024B     		ldr	r3, .L56
 670 0032 0022     		movs	r2, #0
 671 0034 1A60     		str	r2, [r3]
 672              	.L55:
 673              		.loc 1 267 1
 674 0036 00BF     		nop
 675 0038 80BD     		pop	{r7, pc}
 676              	.L57:
 677 003a 00BF     		.align	2
 678              	.L56:
 679 003c 00000000 		.word	YELLOW3
 680 0040 000C0140 		.word	1073810432
 681 0044 00080140 		.word	1073809408
 682              		.cfi_endproc
 683              	.LFE75:
 685              		.section	.text.GREEN3_TOGGLE,"ax",%progbits
 686              		.align	1
 687              		.global	GREEN3_TOGGLE
 688              		.syntax unified
 689              		.thumb
 690              		.thumb_func
 692              	GREEN3_TOGGLE:
 693              	.LFB76:
 268:./Core/Src/LED_TOGGLE.c **** void GREEN3_TOGGLE(){
 694              		.loc 1 268 21
 695              		.cfi_startproc
 696              		@ args = 0, pretend = 0, frame = 0
 697              		@ frame_needed = 1, uses_anonymous_args = 0
 698 0000 80B5     		push	{r7, lr}
 699              		.cfi_def_cfa_offset 8
 700              		.cfi_offset 7, -8
 701              		.cfi_offset 14, -4
 702 0002 00AF     		add	r7, sp, #0
 703              		.cfi_def_cfa_register 7
 269:./Core/Src/LED_TOGGLE.c **** 	if (GREEN3 == 0){
 704              		.loc 1 269 13
 705 0004 0D4B     		ldr	r3, .L62
 706 0006 1B68     		ldr	r3, [r3]
 707              		.loc 1 269 5
 708 0008 002B     		cmp	r3, #0
 709 000a 0FD1     		bne	.L59
 270:./Core/Src/LED_TOGGLE.c **** 		HAL_GPIO_WritePin(LED3A_GPIO_Port, LED3A_Pin, RESET);
 710              		.loc 1 270 3
 711 000c 0022     		movs	r2, #0
 712 000e 4FF48061 		mov	r1, #1024
 713 0012 0B48     		ldr	r0, .L62+4
 714 0014 FFF7FEFF 		bl	HAL_GPIO_WritePin
 271:./Core/Src/LED_TOGGLE.c **** 		HAL_GPIO_WritePin(LED3B_GPIO_Port, LED3B_Pin, SET);
 715              		.loc 1 271 3
 716 0018 0122     		movs	r2, #1
 717 001a 4FF48071 		mov	r1, #256
 718 001e 0948     		ldr	r0, .L62+8
 719 0020 FFF7FEFF 		bl	HAL_GPIO_WritePin
 272:./Core/Src/LED_TOGGLE.c **** 		GREEN3 = 1;
 720              		.loc 1 272 10
 721 0024 054B     		ldr	r3, .L62
 722 0026 0122     		movs	r2, #1
ARM GAS  C:\Users\ASUS\AppData\Local\Temp\cctml4Dx.s 			page 18


 723 0028 1A60     		str	r2, [r3]
 273:./Core/Src/LED_TOGGLE.c **** 	}
 274:./Core/Src/LED_TOGGLE.c **** 	else{
 275:./Core/Src/LED_TOGGLE.c **** 		LED3_OFF();
 276:./Core/Src/LED_TOGGLE.c **** 		GREEN3 = 0;
 277:./Core/Src/LED_TOGGLE.c **** 	}
 278:./Core/Src/LED_TOGGLE.c **** }
 724              		.loc 1 278 1
 725 002a 04E0     		b	.L61
 726              	.L59:
 275:./Core/Src/LED_TOGGLE.c **** 		GREEN3 = 0;
 727              		.loc 1 275 3
 728 002c FFF7FEFF 		bl	LED3_OFF
 276:./Core/Src/LED_TOGGLE.c **** 	}
 729              		.loc 1 276 10
 730 0030 024B     		ldr	r3, .L62
 731 0032 0022     		movs	r2, #0
 732 0034 1A60     		str	r2, [r3]
 733              	.L61:
 734              		.loc 1 278 1
 735 0036 00BF     		nop
 736 0038 80BD     		pop	{r7, pc}
 737              	.L63:
 738 003a 00BF     		.align	2
 739              	.L62:
 740 003c 00000000 		.word	GREEN3
 741 0040 000C0140 		.word	1073810432
 742 0044 00080140 		.word	1073809408
 743              		.cfi_endproc
 744              	.LFE76:
 746              		.text
 747              	.Letext0:
 748              		.file 2 "c:\\st\\stm32cubeide_1.7.0\\stm32cubeide\\plugins\\com.st.stm32cube.ide.mcu.externaltools
 749              		.file 3 "c:\\st\\stm32cubeide_1.7.0\\stm32cubeide\\plugins\\com.st.stm32cube.ide.mcu.externaltools
 750              		.file 4 "Drivers/CMSIS/Device/ST/STM32F1xx/Include/stm32f103xb.h"
 751              		.file 5 "Drivers/CMSIS/Device/ST/STM32F1xx/Include/stm32f1xx.h"
 752              		.file 6 "Drivers/STM32F1xx_HAL_Driver/Inc/stm32f1xx_hal_gpio.h"
 753              		.file 7 "Core/Inc/LED_TOGGLE.h"
ARM GAS  C:\Users\ASUS\AppData\Local\Temp\cctml4Dx.s 			page 19

