ARM GAS  C:\Users\ASUS\AppData\Local\Temp\ccVQgeFh.s 			page 1


   1              		.cpu cortex-m3
   2              		.arch armv7-m
   3              		.fpu softvfp
   4              		.eabi_attribute 20, 1
   5              		.eabi_attribute 21, 1
   6              		.eabi_attribute 23, 3
   7              		.eabi_attribute 24, 1
   8              		.eabi_attribute 25, 1
   9              		.eabi_attribute 26, 1
  10              		.eabi_attribute 30, 6
  11              		.eabi_attribute 34, 1
  12              		.eabi_attribute 18, 4
  13              		.file	"main.c"
  14              		.text
  15              	.Ltext0:
  16              		.cfi_sections	.debug_frame
  17              		.global	htim2
  18              		.section	.bss.htim2,"aw",%nobits
  19              		.align	2
  22              	htim2:
  23 0000 00000000 		.space	72
  23      00000000 
  23      00000000 
  23      00000000 
  23      00000000 
  24              		.global	htim3
  25              		.section	.bss.htim3,"aw",%nobits
  26              		.align	2
  29              	htim3:
  30 0000 00000000 		.space	72
  30      00000000 
  30      00000000 
  30      00000000 
  30      00000000 
  31              		.section	.rodata
  32              		.align	2
  33              	.LC0:
  34 0000 21375345 		.ascii	"!7SEG: %d#\015\012\000"
  34      473A2025 
  34      64230D0A 
  34      00
  35              		.section	.text.main,"ax",%progbits
  36              		.align	1
  37              		.global	main
  38              		.syntax unified
  39              		.thumb
  40              		.thumb_func
  42              	main:
  43              	.LFB68:
  44              		.file 1 "./Core/Src/main.c"
   1:./Core/Src/main.c **** /* USER CODE BEGIN Header */
   2:./Core/Src/main.c **** /**
   3:./Core/Src/main.c ****   ******************************************************************************
   4:./Core/Src/main.c ****   * @file           : main.c
   5:./Core/Src/main.c ****   * @brief          : Main program body
   6:./Core/Src/main.c ****   ******************************************************************************
   7:./Core/Src/main.c ****   * @attention
ARM GAS  C:\Users\ASUS\AppData\Local\Temp\ccVQgeFh.s 			page 2


   8:./Core/Src/main.c ****   *
   9:./Core/Src/main.c ****   * Copyright (c) 2022 STMicroelectronics.
  10:./Core/Src/main.c ****   * All rights reserved.
  11:./Core/Src/main.c ****   *
  12:./Core/Src/main.c ****   * This software is licensed under terms that can be found in the LICENSE file
  13:./Core/Src/main.c ****   * in the root directory of this software component.
  14:./Core/Src/main.c ****   * If no LICENSE file comes with this software, it is provided AS-IS.
  15:./Core/Src/main.c ****   *
  16:./Core/Src/main.c ****   ******************************************************************************
  17:./Core/Src/main.c ****   */
  18:./Core/Src/main.c **** /* USER CODE END Header */
  19:./Core/Src/main.c **** /* Includes ------------------------------------------------------------------*/
  20:./Core/Src/main.c **** //#include "main.h"
  21:./Core/Src/main.c **** 
  22:./Core/Src/main.c **** /* Private includes ----------------------------------------------------------*/
  23:./Core/Src/main.c **** /* USER CODE BEGIN Includes */
  24:./Core/Src/main.c **** #include "fsm_manual.h"
  25:./Core/Src/main.c **** #include "traffic_timer.h"
  26:./Core/Src/main.c **** #include "stdio.h"
  27:./Core/Src/main.c **** /* USER CODE END Includes */
  28:./Core/Src/main.c **** 
  29:./Core/Src/main.c **** /* Private typedef -----------------------------------------------------------*/
  30:./Core/Src/main.c **** /* USER CODE BEGIN PTD */
  31:./Core/Src/main.c **** 
  32:./Core/Src/main.c **** /* USER CODE END PTD */
  33:./Core/Src/main.c **** 
  34:./Core/Src/main.c **** /* Private define ------------------------------------------------------------*/
  35:./Core/Src/main.c **** /* USER CODE BEGIN PD */
  36:./Core/Src/main.c **** /* USER CODE END PD */
  37:./Core/Src/main.c **** 
  38:./Core/Src/main.c **** /* Private macro -------------------------------------------------------------*/
  39:./Core/Src/main.c **** /* USER CODE BEGIN PM */
  40:./Core/Src/main.c **** 
  41:./Core/Src/main.c **** /* USER CODE END PM */
  42:./Core/Src/main.c **** 
  43:./Core/Src/main.c **** /* Private variables ---------------------------------------------------------*/
  44:./Core/Src/main.c **** TIM_HandleTypeDef htim2;
  45:./Core/Src/main.c **** TIM_HandleTypeDef htim3;
  46:./Core/Src/main.c **** 
  47:./Core/Src/main.c **** //UART_HandleTypeDef huart2;
  48:./Core/Src/main.c **** 
  49:./Core/Src/main.c **** /* USER CODE BEGIN PV */
  50:./Core/Src/main.c **** 
  51:./Core/Src/main.c **** /* USER CODE END PV */
  52:./Core/Src/main.c **** 
  53:./Core/Src/main.c **** /* Private function prototypes -----------------------------------------------*/
  54:./Core/Src/main.c **** void SystemClock_Config(void);
  55:./Core/Src/main.c **** static void MX_GPIO_Init(void);
  56:./Core/Src/main.c **** static void MX_USART2_UART_Init(void);
  57:./Core/Src/main.c **** static void MX_TIM2_Init(void);
  58:./Core/Src/main.c **** static void MX_TIM3_Init(void);
  59:./Core/Src/main.c **** /* USER CODE BEGIN PFP */
  60:./Core/Src/main.c **** 
  61:./Core/Src/main.c **** /* USER CODE END PFP */
  62:./Core/Src/main.c **** 
  63:./Core/Src/main.c **** /* Private user code ---------------------------------------------------------*/
  64:./Core/Src/main.c **** /* USER CODE BEGIN 0 */
ARM GAS  C:\Users\ASUS\AppData\Local\Temp\ccVQgeFh.s 			page 3


  65:./Core/Src/main.c **** 
  66:./Core/Src/main.c **** /* USER CODE END 0 */
  67:./Core/Src/main.c **** 
  68:./Core/Src/main.c **** /**
  69:./Core/Src/main.c ****   * @brief  The application entry point.
  70:./Core/Src/main.c ****   * @retval int
  71:./Core/Src/main.c ****   */
  72:./Core/Src/main.c **** int main(void)
  73:./Core/Src/main.c **** {
  45              		.loc 1 73 1
  46              		.cfi_startproc
  47              		@ args = 0, pretend = 0, frame = 120
  48              		@ frame_needed = 1, uses_anonymous_args = 0
  49 0000 80B5     		push	{r7, lr}
  50              		.cfi_def_cfa_offset 8
  51              		.cfi_offset 7, -8
  52              		.cfi_offset 14, -4
  53 0002 9EB0     		sub	sp, sp, #120
  54              		.cfi_def_cfa_offset 128
  55 0004 00AF     		add	r7, sp, #0
  56              		.cfi_def_cfa_register 7
  74:./Core/Src/main.c ****   /* USER CODE BEGIN 1 */
  75:./Core/Src/main.c **** 
  76:./Core/Src/main.c ****   /* USER CODE END 1 */
  77:./Core/Src/main.c **** 
  78:./Core/Src/main.c ****   /* MCU Configuration--------------------------------------------------------*/
  79:./Core/Src/main.c **** 
  80:./Core/Src/main.c ****   /* Reset of all peripherals, Initializes the Flash interface and the Systick. */
  81:./Core/Src/main.c ****   HAL_Init();
  57              		.loc 1 81 3
  58 0006 FFF7FEFF 		bl	HAL_Init
  82:./Core/Src/main.c **** 
  83:./Core/Src/main.c ****   /* USER CODE BEGIN Init */
  84:./Core/Src/main.c **** 
  85:./Core/Src/main.c ****   /* USER CODE END Init */
  86:./Core/Src/main.c **** 
  87:./Core/Src/main.c ****   /* Configure the system clock */
  88:./Core/Src/main.c ****   SystemClock_Config();
  59              		.loc 1 88 3
  60 000a FFF7FEFF 		bl	SystemClock_Config
  89:./Core/Src/main.c **** 
  90:./Core/Src/main.c ****   /* USER CODE BEGIN SysInit */
  91:./Core/Src/main.c **** 
  92:./Core/Src/main.c ****   /* USER CODE END SysInit */
  93:./Core/Src/main.c **** 
  94:./Core/Src/main.c ****   /* Initialize all configured peripherals */
  95:./Core/Src/main.c ****   MX_GPIO_Init();
  61              		.loc 1 95 3
  62 000e FFF7FEFF 		bl	MX_GPIO_Init
  96:./Core/Src/main.c ****   MX_USART2_UART_Init();
  63              		.loc 1 96 3
  64 0012 FFF7FEFF 		bl	MX_USART2_UART_Init
  97:./Core/Src/main.c ****   MX_TIM2_Init();
  65              		.loc 1 97 3
  66 0016 FFF7FEFF 		bl	MX_TIM2_Init
  98:./Core/Src/main.c ****   MX_TIM3_Init();
  67              		.loc 1 98 3
ARM GAS  C:\Users\ASUS\AppData\Local\Temp\ccVQgeFh.s 			page 4


  68 001a FFF7FEFF 		bl	MX_TIM3_Init
  99:./Core/Src/main.c ****   /* USER CODE BEGIN 2 */
 100:./Core/Src/main.c ****   HAL_TIM_Base_Start_IT (&htim2) ;
  69              		.loc 1 100 3
  70 001e 5F48     		ldr	r0, .L13
  71 0020 FFF7FEFF 		bl	HAL_TIM_Base_Start_IT
 101:./Core/Src/main.c ****   HAL_TIM_PWM_Start(&htim3, TIM_CHANNEL_1);
  72              		.loc 1 101 3
  73 0024 0021     		movs	r1, #0
  74 0026 5E48     		ldr	r0, .L13+4
  75 0028 FFF7FEFF 		bl	HAL_TIM_PWM_Start
 102:./Core/Src/main.c ****   /* USER CODE END 2 */
 103:./Core/Src/main.c **** 
 104:./Core/Src/main.c ****   /* Infinite loop */
 105:./Core/Src/main.c ****   /* USER CODE BEGIN WHILE */
 106:./Core/Src/main.c **** 
 107:./Core/Src/main.c ****   //Set up for Pedestrian
 108:./Core/Src/main.c ****   int userButton = 0;
  76              		.loc 1 108 7
  77 002c 0023     		movs	r3, #0
  78 002e 7B67     		str	r3, [r7, #116]
 109:./Core/Src/main.c ****   LED3_OFF();
  79              		.loc 1 109 3
  80 0030 FFF7FEFF 		bl	LED3_OFF
 110:./Core/Src/main.c **** 
 111:./Core/Src/main.c ****   //Set up for start
 112:./Core/Src/main.c ****   setTimer1(250);
  81              		.loc 1 112 3
  82 0034 FA20     		movs	r0, #250
  83 0036 FFF7FEFF 		bl	setTimer1
 113:./Core/Src/main.c ****   int one_sec= 3;
  84              		.loc 1 113 7
  85 003a 0323     		movs	r3, #3
  86 003c 3B67     		str	r3, [r7, #112]
  87              	.L12:
 114:./Core/Src/main.c **** 
 115:./Core/Src/main.c ****   while (1)
 116:./Core/Src/main.c ****   {
 117:./Core/Src/main.c ****     /* USER CODE END WHILE */
 118:./Core/Src/main.c **** 
 119:./Core/Src/main.c ****     /* USER CODE BEGIN 3 */
 120:./Core/Src/main.c **** 
 121:./Core/Src/main.c **** 	  //All about FSM
 122:./Core/Src/main.c **** 	  fsm_manual_run();		//manual fsm
  88              		.loc 1 122 4
  89 003e FFF7FEFF 		bl	fsm_manual_run
 123:./Core/Src/main.c **** 	  light_control_1();	//fsm for traffic light 1
  90              		.loc 1 123 4
  91 0042 FFF7FEFF 		bl	light_control_1
 124:./Core/Src/main.c **** 	  light_control_2();	//fsm for traffic light 2
  92              		.loc 1 124 4
  93 0046 FFF7FEFF 		bl	light_control_2
 125:./Core/Src/main.c **** 
 126:./Core/Src/main.c **** 
 127:./Core/Src/main.c **** 	  if (isButton4Pressed()){		// Pedestrian pressed
  94              		.loc 1 127 8
  95 004a FFF7FEFF 		bl	isButton4Pressed
ARM GAS  C:\Users\ASUS\AppData\Local\Temp\ccVQgeFh.s 			page 5


  96 004e 0346     		mov	r3, r0
  97              		.loc 1 127 7
  98 0050 002B     		cmp	r3, #0
  99 0052 05D0     		beq	.L2
 128:./Core/Src/main.c **** 		  userButton = 1;
 100              		.loc 1 128 16
 101 0054 0123     		movs	r3, #1
 102 0056 7B67     		str	r3, [r7, #116]
 129:./Core/Src/main.c **** 		  setTimer5(20000);
 103              		.loc 1 129 5
 104 0058 44F62060 		movw	r0, #20000
 105 005c FFF7FEFF 		bl	setTimer5
 106              	.L2:
 130:./Core/Src/main.c **** 	  }
 131:./Core/Src/main.c **** 	  if (timer5_flag == 1){		// Time out
 107              		.loc 1 131 20
 108 0060 504B     		ldr	r3, .L13+8
 109 0062 1B68     		ldr	r3, [r3]
 110              		.loc 1 131 7
 111 0064 012B     		cmp	r3, #1
 112 0066 03D1     		bne	.L3
 132:./Core/Src/main.c **** 		  userButton = 0;
 113              		.loc 1 132 16
 114 0068 0023     		movs	r3, #0
 115 006a 7B67     		str	r3, [r7, #116]
 133:./Core/Src/main.c **** 		  LED3_OFF();
 116              		.loc 1 133 5
 117 006c FFF7FEFF 		bl	LED3_OFF
 118              	.L3:
 134:./Core/Src/main.c **** 	  }
 135:./Core/Src/main.c **** 
 136:./Core/Src/main.c **** 
 137:./Core/Src/main.c **** 
 138:./Core/Src/main.c **** 	  if (timer1_flag == 1){		// One duration blinky 250ms
 119              		.loc 1 138 20
 120 0070 4D4B     		ldr	r3, .L13+12
 121 0072 1B68     		ldr	r3, [r3]
 122              		.loc 1 138 7
 123 0074 012B     		cmp	r3, #1
 124 0076 E2D1     		bne	.L12
 139:./Core/Src/main.c **** 		  setTimer1(250);
 125              		.loc 1 139 5
 126 0078 FA20     		movs	r0, #250
 127 007a FFF7FEFF 		bl	setTimer1
 140:./Core/Src/main.c **** 
 141:./Core/Src/main.c **** 		  one_sec++;				// Count down, print to terminal
 128              		.loc 1 141 12
 129 007e 3B6F     		ldr	r3, [r7, #112]
 130 0080 0133     		adds	r3, r3, #1
 131 0082 3B67     		str	r3, [r7, #112]
 142:./Core/Src/main.c **** 		  if (one_sec == 4){
 132              		.loc 1 142 8
 133 0084 3B6F     		ldr	r3, [r7, #112]
 134 0086 042B     		cmp	r3, #4
 135 0088 18D1     		bne	.L5
 136              	.LBB4:
 143:./Core/Src/main.c **** 			  one_sec = 0;
ARM GAS  C:\Users\ASUS\AppData\Local\Temp\ccVQgeFh.s 			page 6


 137              		.loc 1 143 14
 138 008a 0023     		movs	r3, #0
 139 008c 3B67     		str	r3, [r7, #112]
 144:./Core/Src/main.c **** 			  int time = timer3_counter/100;
 140              		.loc 1 144 31
 141 008e 474B     		ldr	r3, .L13+16
 142 0090 1B68     		ldr	r3, [r3]
 143              		.loc 1 144 10
 144 0092 474A     		ldr	r2, .L13+20
 145 0094 82FB0312 		smull	r1, r2, r2, r3
 146 0098 5211     		asrs	r2, r2, #5
 147 009a DB17     		asrs	r3, r3, #31
 148 009c D31A     		subs	r3, r2, r3
 149 009e FB66     		str	r3, [r7, #108]
 145:./Core/Src/main.c **** 			  char str[100];
 146:./Core/Src/main.c **** 			  HAL_UART_Transmit(&huart2,(uint8_t*) str, sprintf(str, "!7SEG: %d#\r\n",time), 1000);
 150              		.loc 1 146 48
 151 00a0 3B1D     		adds	r3, r7, #4
 152 00a2 FA6E     		ldr	r2, [r7, #108]
 153 00a4 4349     		ldr	r1, .L13+24
 154 00a6 1846     		mov	r0, r3
 155 00a8 FFF7FEFF 		bl	sprintf
 156 00ac 0346     		mov	r3, r0
 157              		.loc 1 146 6
 158 00ae 9AB2     		uxth	r2, r3
 159 00b0 391D     		adds	r1, r7, #4
 160 00b2 4FF47A73 		mov	r3, #1000
 161 00b6 4048     		ldr	r0, .L13+28
 162 00b8 FFF7FEFF 		bl	HAL_UART_Transmit
 163              	.L5:
 164              	.LBE4:
 147:./Core/Src/main.c **** 		  }
 148:./Core/Src/main.c **** 
 149:./Core/Src/main.c **** 	  		  //Cum den 1
 150:./Core/Src/main.c **** 		  if (RED1_flag){
 165              		.loc 1 150 9
 166 00bc 3F4B     		ldr	r3, .L13+32
 167 00be 1B68     		ldr	r3, [r3]
 168              		.loc 1 150 8
 169 00c0 002B     		cmp	r3, #0
 170 00c2 02D0     		beq	.L6
 151:./Core/Src/main.c **** 			  RED1_TOGGLE();
 171              		.loc 1 151 6
 172 00c4 FFF7FEFF 		bl	RED1_TOGGLE
 173 00c8 0CE0     		b	.L7
 174              	.L6:
 152:./Core/Src/main.c **** 		  }
 153:./Core/Src/main.c **** 		  else if(YELLOW1_flag){
 175              		.loc 1 153 13
 176 00ca 3D4B     		ldr	r3, .L13+36
 177 00cc 1B68     		ldr	r3, [r3]
 178              		.loc 1 153 12
 179 00ce 002B     		cmp	r3, #0
 180 00d0 02D0     		beq	.L8
 154:./Core/Src/main.c **** 			  YELLOW1_TOGGLE();
 181              		.loc 1 154 6
 182 00d2 FFF7FEFF 		bl	YELLOW1_TOGGLE
ARM GAS  C:\Users\ASUS\AppData\Local\Temp\ccVQgeFh.s 			page 7


 183 00d6 05E0     		b	.L7
 184              	.L8:
 155:./Core/Src/main.c **** 		  }
 156:./Core/Src/main.c **** 		  else if(GREEN1_flag){
 185              		.loc 1 156 13
 186 00d8 3A4B     		ldr	r3, .L13+40
 187 00da 1B68     		ldr	r3, [r3]
 188              		.loc 1 156 12
 189 00dc 002B     		cmp	r3, #0
 190 00de 01D0     		beq	.L7
 157:./Core/Src/main.c **** 	  		  GREEN1_TOGGLE();
 191              		.loc 1 157 8
 192 00e0 FFF7FEFF 		bl	GREEN1_TOGGLE
 193              	.L7:
 158:./Core/Src/main.c **** 	  	  }
 159:./Core/Src/main.c **** 
 160:./Core/Src/main.c **** 	  		  //Cum den 2
 161:./Core/Src/main.c **** 		  if(RED2_flag){
 194              		.loc 1 161 8
 195 00e4 384B     		ldr	r3, .L13+44
 196 00e6 1B68     		ldr	r3, [r3]
 197              		.loc 1 161 7
 198 00e8 002B     		cmp	r3, #0
 199 00ea 0BD0     		beq	.L9
 162:./Core/Src/main.c **** 	  		  RED2_TOGGLE();
 200              		.loc 1 162 8
 201 00ec FFF7FEFF 		bl	RED2_TOGGLE
 163:./Core/Src/main.c **** 	  		  __HAL_TIM_SetCompare (&htim3,TIM_CHANNEL_1,0);
 202              		.loc 1 163 8
 203 00f0 2B4B     		ldr	r3, .L13+4
 204 00f2 1B68     		ldr	r3, [r3]
 205 00f4 0022     		movs	r2, #0
 206 00f6 5A63     		str	r2, [r3, #52]
 164:./Core/Src/main.c **** 	 		  if (userButton) RED3_TOGGLE();
 207              		.loc 1 164 10
 208 00f8 7B6F     		ldr	r3, [r7, #116]
 209 00fa 002B     		cmp	r3, #0
 210 00fc 9FD0     		beq	.L12
 211              		.loc 1 164 23 discriminator 1
 212 00fe FFF7FEFF 		bl	RED3_TOGGLE
 213 0102 9CE7     		b	.L12
 214              	.L9:
 165:./Core/Src/main.c **** 		  }
 166:./Core/Src/main.c **** 		  else if(YELLOW2_flag){
 215              		.loc 1 166 13
 216 0104 314B     		ldr	r3, .L13+48
 217 0106 1B68     		ldr	r3, [r3]
 218              		.loc 1 166 12
 219 0108 002B     		cmp	r3, #0
 220 010a 39D0     		beq	.L10
 167:./Core/Src/main.c **** 			  YELLOW2_TOGGLE();
 221              		.loc 1 167 6
 222 010c FFF7FEFF 		bl	YELLOW2_TOGGLE
 168:./Core/Src/main.c **** 			  if (userButton) {
 223              		.loc 1 168 9
 224 0110 7B6F     		ldr	r3, [r7, #116]
 225 0112 002B     		cmp	r3, #0
ARM GAS  C:\Users\ASUS\AppData\Local\Temp\ccVQgeFh.s 			page 8


 226 0114 2FD0     		beq	.L11
 227              	.LBB5:
 169:./Core/Src/main.c **** 				  YELLOW3_TOGGLE();
 228              		.loc 1 169 7
 229 0116 FFF7FEFF 		bl	YELLOW3_TOGGLE
 170:./Core/Src/main.c **** 				  int feq = 100 - 100*(10*timer3_counter/timer_yellow);
 230              		.loc 1 170 30
 231 011a 244B     		ldr	r3, .L13+16
 232 011c 1A68     		ldr	r2, [r3]
 233 011e 1346     		mov	r3, r2
 234 0120 9B00     		lsls	r3, r3, #2
 235 0122 1344     		add	r3, r3, r2
 236 0124 5B00     		lsls	r3, r3, #1
 237 0126 1A46     		mov	r2, r3
 238              		.loc 1 170 45
 239 0128 294B     		ldr	r3, .L13+52
 240 012a 1B68     		ldr	r3, [r3]
 241 012c 92FBF3F3 		sdiv	r3, r2, r3
 242              		.loc 1 170 21
 243 0130 C3F10103 		rsb	r3, r3, #1
 244              		.loc 1 170 11
 245 0134 6422     		movs	r2, #100
 246 0136 02FB03F3 		mul	r3, r2, r3
 247 013a BB66     		str	r3, [r7, #104]
 171:./Core/Src/main.c **** 				  __HAL_TIM_SET_AUTORELOAD(&htim3,feq*5/2);
 248              		.loc 1 171 7
 249 013c BA6E     		ldr	r2, [r7, #104]
 250 013e 1346     		mov	r3, r2
 251 0140 9B00     		lsls	r3, r3, #2
 252 0142 1344     		add	r3, r3, r2
 253 0144 DA0F     		lsrs	r2, r3, #31
 254 0146 1344     		add	r3, r3, r2
 255 0148 5B10     		asrs	r3, r3, #1
 256 014a 1A46     		mov	r2, r3
 257 014c 144B     		ldr	r3, .L13+4
 258 014e 1B68     		ldr	r3, [r3]
 259 0150 DA62     		str	r2, [r3, #44]
 260 0152 BA6E     		ldr	r2, [r7, #104]
 261 0154 1346     		mov	r3, r2
 262 0156 9B00     		lsls	r3, r3, #2
 263 0158 1344     		add	r3, r3, r2
 264 015a DA0F     		lsrs	r2, r3, #31
 265 015c 1344     		add	r3, r3, r2
 266 015e 5B10     		asrs	r3, r3, #1
 267 0160 1A46     		mov	r2, r3
 268 0162 0F4B     		ldr	r3, .L13+4
 269 0164 DA60     		str	r2, [r3, #12]
 172:./Core/Src/main.c **** 				  __HAL_TIM_SetCompare (&htim3,TIM_CHANNEL_1,feq);
 270              		.loc 1 172 7
 271 0166 0E4B     		ldr	r3, .L13+4
 272 0168 1B68     		ldr	r3, [r3]
 273 016a BA6E     		ldr	r2, [r7, #104]
 274 016c 5A63     		str	r2, [r3, #52]
 173:./Core/Src/main.c **** 				  HAL_Delay(100);
 275              		.loc 1 173 7
 276 016e 6420     		movs	r0, #100
 277 0170 FFF7FEFF 		bl	HAL_Delay
ARM GAS  C:\Users\ASUS\AppData\Local\Temp\ccVQgeFh.s 			page 9


 278              	.LBE5:
 279 0174 63E7     		b	.L12
 280              	.L11:
 174:./Core/Src/main.c **** 			  }
 175:./Core/Src/main.c **** 			  else __HAL_TIM_SetCompare (&htim3,TIM_CHANNEL_1,0);
 281              		.loc 1 175 11
 282 0176 0A4B     		ldr	r3, .L13+4
 283 0178 1B68     		ldr	r3, [r3]
 284 017a 0022     		movs	r2, #0
 285 017c 5A63     		str	r2, [r3, #52]
 286 017e 5EE7     		b	.L12
 287              	.L10:
 176:./Core/Src/main.c **** 		  }
 177:./Core/Src/main.c **** 	  	  else if(GREEN2_flag){
 288              		.loc 1 177 15
 289 0180 144B     		ldr	r3, .L13+56
 290 0182 1B68     		ldr	r3, [r3]
 291              		.loc 1 177 14
 292 0184 002B     		cmp	r3, #0
 293 0186 3FF45AAF 		beq	.L12
 178:./Core/Src/main.c **** 	  		  GREEN2_TOGGLE();
 294              		.loc 1 178 8
 295 018a FFF7FEFF 		bl	GREEN2_TOGGLE
 179:./Core/Src/main.c **** 	  		  if (userButton) GREEN3_TOGGLE();
 296              		.loc 1 179 11
 297 018e 7B6F     		ldr	r3, [r7, #116]
 298 0190 002B     		cmp	r3, #0
 299 0192 3FF454AF 		beq	.L12
 300              		.loc 1 179 24 discriminator 1
 301 0196 FFF7FEFF 		bl	GREEN3_TOGGLE
 122:./Core/Src/main.c **** 	  light_control_1();	//fsm for traffic light 1
 302              		.loc 1 122 4 discriminator 1
 303 019a 50E7     		b	.L12
 304              	.L14:
 305              		.align	2
 306              	.L13:
 307 019c 00000000 		.word	htim2
 308 01a0 00000000 		.word	htim3
 309 01a4 00000000 		.word	timer5_flag
 310 01a8 00000000 		.word	timer1_flag
 311 01ac 00000000 		.word	timer3_counter
 312 01b0 1F85EB51 		.word	1374389535
 313 01b4 00000000 		.word	.LC0
 314 01b8 00000000 		.word	huart2
 315 01bc 00000000 		.word	RED1_flag
 316 01c0 00000000 		.word	YELLOW1_flag
 317 01c4 00000000 		.word	GREEN1_flag
 318 01c8 00000000 		.word	RED2_flag
 319 01cc 00000000 		.word	YELLOW2_flag
 320 01d0 00000000 		.word	timer_yellow
 321 01d4 00000000 		.word	GREEN2_flag
 322              		.cfi_endproc
 323              	.LFE68:
 325              		.section	.text.SystemClock_Config,"ax",%progbits
 326              		.align	1
 327              		.global	SystemClock_Config
 328              		.syntax unified
ARM GAS  C:\Users\ASUS\AppData\Local\Temp\ccVQgeFh.s 			page 10


 329              		.thumb
 330              		.thumb_func
 332              	SystemClock_Config:
 333              	.LFB69:
 180:./Core/Src/main.c **** 	  	  }
 181:./Core/Src/main.c **** 	  }
 182:./Core/Src/main.c ****   }
 183:./Core/Src/main.c ****   /* USER CODE END 3 */
 184:./Core/Src/main.c **** }
 185:./Core/Src/main.c **** 
 186:./Core/Src/main.c **** /**
 187:./Core/Src/main.c ****   * @brief System Clock Configuration
 188:./Core/Src/main.c ****   * @retval None
 189:./Core/Src/main.c ****   */
 190:./Core/Src/main.c **** void SystemClock_Config(void)
 191:./Core/Src/main.c **** {
 334              		.loc 1 191 1
 335              		.cfi_startproc
 336              		@ args = 0, pretend = 0, frame = 64
 337              		@ frame_needed = 1, uses_anonymous_args = 0
 338 0000 80B5     		push	{r7, lr}
 339              		.cfi_def_cfa_offset 8
 340              		.cfi_offset 7, -8
 341              		.cfi_offset 14, -4
 342 0002 90B0     		sub	sp, sp, #64
 343              		.cfi_def_cfa_offset 72
 344 0004 00AF     		add	r7, sp, #0
 345              		.cfi_def_cfa_register 7
 192:./Core/Src/main.c ****   RCC_OscInitTypeDef RCC_OscInitStruct = {0};
 346              		.loc 1 192 22
 347 0006 07F11803 		add	r3, r7, #24
 348 000a 2822     		movs	r2, #40
 349 000c 0021     		movs	r1, #0
 350 000e 1846     		mov	r0, r3
 351 0010 FFF7FEFF 		bl	memset
 193:./Core/Src/main.c ****   RCC_ClkInitTypeDef RCC_ClkInitStruct = {0};
 352              		.loc 1 193 22
 353 0014 3B1D     		adds	r3, r7, #4
 354 0016 0022     		movs	r2, #0
 355 0018 1A60     		str	r2, [r3]
 356 001a 5A60     		str	r2, [r3, #4]
 357 001c 9A60     		str	r2, [r3, #8]
 358 001e DA60     		str	r2, [r3, #12]
 359 0020 1A61     		str	r2, [r3, #16]
 194:./Core/Src/main.c **** 
 195:./Core/Src/main.c ****   /** Initializes the RCC Oscillators according to the specified parameters
 196:./Core/Src/main.c ****   * in the RCC_OscInitTypeDef structure.
 197:./Core/Src/main.c ****   */
 198:./Core/Src/main.c ****   RCC_OscInitStruct.OscillatorType = RCC_OSCILLATORTYPE_HSI;
 360              		.loc 1 198 36
 361 0022 0223     		movs	r3, #2
 362 0024 BB61     		str	r3, [r7, #24]
 199:./Core/Src/main.c ****   RCC_OscInitStruct.HSIState = RCC_HSI_ON;
 363              		.loc 1 199 30
 364 0026 0123     		movs	r3, #1
 365 0028 BB62     		str	r3, [r7, #40]
 200:./Core/Src/main.c ****   RCC_OscInitStruct.HSICalibrationValue = RCC_HSICALIBRATION_DEFAULT;
ARM GAS  C:\Users\ASUS\AppData\Local\Temp\ccVQgeFh.s 			page 11


 366              		.loc 1 200 41
 367 002a 1023     		movs	r3, #16
 368 002c FB62     		str	r3, [r7, #44]
 201:./Core/Src/main.c ****   RCC_OscInitStruct.PLL.PLLState = RCC_PLL_ON;
 369              		.loc 1 201 34
 370 002e 0223     		movs	r3, #2
 371 0030 7B63     		str	r3, [r7, #52]
 202:./Core/Src/main.c ****   RCC_OscInitStruct.PLL.PLLSource = RCC_PLLSOURCE_HSI_DIV2;
 372              		.loc 1 202 35
 373 0032 0023     		movs	r3, #0
 374 0034 BB63     		str	r3, [r7, #56]
 203:./Core/Src/main.c ****   RCC_OscInitStruct.PLL.PLLMUL = RCC_PLL_MUL16;
 375              		.loc 1 203 32
 376 0036 4FF46013 		mov	r3, #3670016
 377 003a FB63     		str	r3, [r7, #60]
 204:./Core/Src/main.c ****   if (HAL_RCC_OscConfig(&RCC_OscInitStruct) != HAL_OK)
 378              		.loc 1 204 7
 379 003c 07F11803 		add	r3, r7, #24
 380 0040 1846     		mov	r0, r3
 381 0042 FFF7FEFF 		bl	HAL_RCC_OscConfig
 382 0046 0346     		mov	r3, r0
 383              		.loc 1 204 6
 384 0048 002B     		cmp	r3, #0
 385 004a 01D0     		beq	.L16
 205:./Core/Src/main.c ****   {
 206:./Core/Src/main.c ****     Error_Handler();
 386              		.loc 1 206 5
 387 004c FFF7FEFF 		bl	Error_Handler
 388              	.L16:
 207:./Core/Src/main.c ****   }
 208:./Core/Src/main.c **** 
 209:./Core/Src/main.c ****   /** Initializes the CPU, AHB and APB buses clocks
 210:./Core/Src/main.c ****   */
 211:./Core/Src/main.c ****   RCC_ClkInitStruct.ClockType = RCC_CLOCKTYPE_HCLK|RCC_CLOCKTYPE_SYSCLK
 389              		.loc 1 211 31
 390 0050 0F23     		movs	r3, #15
 391 0052 7B60     		str	r3, [r7, #4]
 212:./Core/Src/main.c ****                               |RCC_CLOCKTYPE_PCLK1|RCC_CLOCKTYPE_PCLK2;
 213:./Core/Src/main.c ****   RCC_ClkInitStruct.SYSCLKSource = RCC_SYSCLKSOURCE_PLLCLK;
 392              		.loc 1 213 34
 393 0054 0223     		movs	r3, #2
 394 0056 BB60     		str	r3, [r7, #8]
 214:./Core/Src/main.c ****   RCC_ClkInitStruct.AHBCLKDivider = RCC_SYSCLK_DIV1;
 395              		.loc 1 214 35
 396 0058 0023     		movs	r3, #0
 397 005a FB60     		str	r3, [r7, #12]
 215:./Core/Src/main.c ****   RCC_ClkInitStruct.APB1CLKDivider = RCC_HCLK_DIV2;
 398              		.loc 1 215 36
 399 005c 4FF48063 		mov	r3, #1024
 400 0060 3B61     		str	r3, [r7, #16]
 216:./Core/Src/main.c ****   RCC_ClkInitStruct.APB2CLKDivider = RCC_HCLK_DIV1;
 401              		.loc 1 216 36
 402 0062 0023     		movs	r3, #0
 403 0064 7B61     		str	r3, [r7, #20]
 217:./Core/Src/main.c **** 
 218:./Core/Src/main.c ****   if (HAL_RCC_ClockConfig(&RCC_ClkInitStruct, FLASH_LATENCY_2) != HAL_OK)
 404              		.loc 1 218 7
ARM GAS  C:\Users\ASUS\AppData\Local\Temp\ccVQgeFh.s 			page 12


 405 0066 3B1D     		adds	r3, r7, #4
 406 0068 0221     		movs	r1, #2
 407 006a 1846     		mov	r0, r3
 408 006c FFF7FEFF 		bl	HAL_RCC_ClockConfig
 409 0070 0346     		mov	r3, r0
 410              		.loc 1 218 6
 411 0072 002B     		cmp	r3, #0
 412 0074 01D0     		beq	.L18
 219:./Core/Src/main.c ****   {
 220:./Core/Src/main.c ****     Error_Handler();
 413              		.loc 1 220 5
 414 0076 FFF7FEFF 		bl	Error_Handler
 415              	.L18:
 221:./Core/Src/main.c ****   }
 222:./Core/Src/main.c **** }
 416              		.loc 1 222 1
 417 007a 00BF     		nop
 418 007c 4037     		adds	r7, r7, #64
 419              		.cfi_def_cfa_offset 8
 420 007e BD46     		mov	sp, r7
 421              		.cfi_def_cfa_register 13
 422              		@ sp needed
 423 0080 80BD     		pop	{r7, pc}
 424              		.cfi_endproc
 425              	.LFE69:
 427              		.section	.text.MX_TIM2_Init,"ax",%progbits
 428              		.align	1
 429              		.syntax unified
 430              		.thumb
 431              		.thumb_func
 433              	MX_TIM2_Init:
 434              	.LFB70:
 223:./Core/Src/main.c **** 
 224:./Core/Src/main.c **** /**
 225:./Core/Src/main.c ****   * @brief TIM2 Initialization Function
 226:./Core/Src/main.c ****   * @param None
 227:./Core/Src/main.c ****   * @retval None
 228:./Core/Src/main.c ****   */
 229:./Core/Src/main.c **** static void MX_TIM2_Init(void)
 230:./Core/Src/main.c **** {
 435              		.loc 1 230 1
 436              		.cfi_startproc
 437              		@ args = 0, pretend = 0, frame = 24
 438              		@ frame_needed = 1, uses_anonymous_args = 0
 439 0000 80B5     		push	{r7, lr}
 440              		.cfi_def_cfa_offset 8
 441              		.cfi_offset 7, -8
 442              		.cfi_offset 14, -4
 443 0002 86B0     		sub	sp, sp, #24
 444              		.cfi_def_cfa_offset 32
 445 0004 00AF     		add	r7, sp, #0
 446              		.cfi_def_cfa_register 7
 231:./Core/Src/main.c **** 
 232:./Core/Src/main.c ****   /* USER CODE BEGIN TIM2_Init 0 */
 233:./Core/Src/main.c **** 
 234:./Core/Src/main.c ****   /* USER CODE END TIM2_Init 0 */
 235:./Core/Src/main.c **** 
ARM GAS  C:\Users\ASUS\AppData\Local\Temp\ccVQgeFh.s 			page 13


 236:./Core/Src/main.c ****   TIM_ClockConfigTypeDef sClockSourceConfig = {0};
 447              		.loc 1 236 26
 448 0006 07F10803 		add	r3, r7, #8
 449 000a 0022     		movs	r2, #0
 450 000c 1A60     		str	r2, [r3]
 451 000e 5A60     		str	r2, [r3, #4]
 452 0010 9A60     		str	r2, [r3, #8]
 453 0012 DA60     		str	r2, [r3, #12]
 237:./Core/Src/main.c ****   TIM_MasterConfigTypeDef sMasterConfig = {0};
 454              		.loc 1 237 27
 455 0014 3B46     		mov	r3, r7
 456 0016 0022     		movs	r2, #0
 457 0018 1A60     		str	r2, [r3]
 458 001a 5A60     		str	r2, [r3, #4]
 238:./Core/Src/main.c **** 
 239:./Core/Src/main.c ****   /* USER CODE BEGIN TIM2_Init 1 */
 240:./Core/Src/main.c **** 
 241:./Core/Src/main.c ****   /* USER CODE END TIM2_Init 1 */
 242:./Core/Src/main.c ****   htim2.Instance = TIM2;
 459              		.loc 1 242 18
 460 001c 1D4B     		ldr	r3, .L24
 461 001e 4FF08042 		mov	r2, #1073741824
 462 0022 1A60     		str	r2, [r3]
 243:./Core/Src/main.c ****   htim2.Init.Prescaler = 7999;
 463              		.loc 1 243 24
 464 0024 1B4B     		ldr	r3, .L24
 465 0026 41F63F72 		movw	r2, #7999
 466 002a 5A60     		str	r2, [r3, #4]
 244:./Core/Src/main.c ****   htim2.Init.CounterMode = TIM_COUNTERMODE_UP;
 467              		.loc 1 244 26
 468 002c 194B     		ldr	r3, .L24
 469 002e 0022     		movs	r2, #0
 470 0030 9A60     		str	r2, [r3, #8]
 245:./Core/Src/main.c ****   htim2.Init.Period = 79;
 471              		.loc 1 245 21
 472 0032 184B     		ldr	r3, .L24
 473 0034 4F22     		movs	r2, #79
 474 0036 DA60     		str	r2, [r3, #12]
 246:./Core/Src/main.c ****   htim2.Init.ClockDivision = TIM_CLOCKDIVISION_DIV1;
 475              		.loc 1 246 28
 476 0038 164B     		ldr	r3, .L24
 477 003a 0022     		movs	r2, #0
 478 003c 1A61     		str	r2, [r3, #16]
 247:./Core/Src/main.c ****   htim2.Init.AutoReloadPreload = TIM_AUTORELOAD_PRELOAD_DISABLE;
 479              		.loc 1 247 32
 480 003e 154B     		ldr	r3, .L24
 481 0040 0022     		movs	r2, #0
 482 0042 9A61     		str	r2, [r3, #24]
 248:./Core/Src/main.c ****   if (HAL_TIM_Base_Init(&htim2) != HAL_OK)
 483              		.loc 1 248 7
 484 0044 1348     		ldr	r0, .L24
 485 0046 FFF7FEFF 		bl	HAL_TIM_Base_Init
 486 004a 0346     		mov	r3, r0
 487              		.loc 1 248 6
 488 004c 002B     		cmp	r3, #0
 489 004e 01D0     		beq	.L20
 249:./Core/Src/main.c ****   {
ARM GAS  C:\Users\ASUS\AppData\Local\Temp\ccVQgeFh.s 			page 14


 250:./Core/Src/main.c ****     Error_Handler();
 490              		.loc 1 250 5
 491 0050 FFF7FEFF 		bl	Error_Handler
 492              	.L20:
 251:./Core/Src/main.c ****   }
 252:./Core/Src/main.c ****   sClockSourceConfig.ClockSource = TIM_CLOCKSOURCE_INTERNAL;
 493              		.loc 1 252 34
 494 0054 4FF48053 		mov	r3, #4096
 495 0058 BB60     		str	r3, [r7, #8]
 253:./Core/Src/main.c ****   if (HAL_TIM_ConfigClockSource(&htim2, &sClockSourceConfig) != HAL_OK)
 496              		.loc 1 253 7
 497 005a 07F10803 		add	r3, r7, #8
 498 005e 1946     		mov	r1, r3
 499 0060 0C48     		ldr	r0, .L24
 500 0062 FFF7FEFF 		bl	HAL_TIM_ConfigClockSource
 501 0066 0346     		mov	r3, r0
 502              		.loc 1 253 6
 503 0068 002B     		cmp	r3, #0
 504 006a 01D0     		beq	.L21
 254:./Core/Src/main.c ****   {
 255:./Core/Src/main.c ****     Error_Handler();
 505              		.loc 1 255 5
 506 006c FFF7FEFF 		bl	Error_Handler
 507              	.L21:
 256:./Core/Src/main.c ****   }
 257:./Core/Src/main.c ****   sMasterConfig.MasterOutputTrigger = TIM_TRGO_RESET;
 508              		.loc 1 257 37
 509 0070 0023     		movs	r3, #0
 510 0072 3B60     		str	r3, [r7]
 258:./Core/Src/main.c ****   sMasterConfig.MasterSlaveMode = TIM_MASTERSLAVEMODE_DISABLE;
 511              		.loc 1 258 33
 512 0074 0023     		movs	r3, #0
 513 0076 7B60     		str	r3, [r7, #4]
 259:./Core/Src/main.c ****   if (HAL_TIMEx_MasterConfigSynchronization(&htim2, &sMasterConfig) != HAL_OK)
 514              		.loc 1 259 7
 515 0078 3B46     		mov	r3, r7
 516 007a 1946     		mov	r1, r3
 517 007c 0548     		ldr	r0, .L24
 518 007e FFF7FEFF 		bl	HAL_TIMEx_MasterConfigSynchronization
 519 0082 0346     		mov	r3, r0
 520              		.loc 1 259 6
 521 0084 002B     		cmp	r3, #0
 522 0086 01D0     		beq	.L23
 260:./Core/Src/main.c ****   {
 261:./Core/Src/main.c ****     Error_Handler();
 523              		.loc 1 261 5
 524 0088 FFF7FEFF 		bl	Error_Handler
 525              	.L23:
 262:./Core/Src/main.c ****   }
 263:./Core/Src/main.c ****   /* USER CODE BEGIN TIM2_Init 2 */
 264:./Core/Src/main.c **** 
 265:./Core/Src/main.c ****   /* USER CODE END TIM2_Init 2 */
 266:./Core/Src/main.c **** 
 267:./Core/Src/main.c **** }
 526              		.loc 1 267 1
 527 008c 00BF     		nop
 528 008e 1837     		adds	r7, r7, #24
ARM GAS  C:\Users\ASUS\AppData\Local\Temp\ccVQgeFh.s 			page 15


 529              		.cfi_def_cfa_offset 8
 530 0090 BD46     		mov	sp, r7
 531              		.cfi_def_cfa_register 13
 532              		@ sp needed
 533 0092 80BD     		pop	{r7, pc}
 534              	.L25:
 535              		.align	2
 536              	.L24:
 537 0094 00000000 		.word	htim2
 538              		.cfi_endproc
 539              	.LFE70:
 541              		.section	.text.MX_TIM3_Init,"ax",%progbits
 542              		.align	1
 543              		.syntax unified
 544              		.thumb
 545              		.thumb_func
 547              	MX_TIM3_Init:
 548              	.LFB71:
 268:./Core/Src/main.c **** 
 269:./Core/Src/main.c **** /**
 270:./Core/Src/main.c ****   * @brief TIM3 Initialization Function
 271:./Core/Src/main.c ****   * @param None
 272:./Core/Src/main.c ****   * @retval None
 273:./Core/Src/main.c ****   */
 274:./Core/Src/main.c **** static void MX_TIM3_Init(void)
 275:./Core/Src/main.c **** {
 549              		.loc 1 275 1
 550              		.cfi_startproc
 551              		@ args = 0, pretend = 0, frame = 56
 552              		@ frame_needed = 1, uses_anonymous_args = 0
 553 0000 80B5     		push	{r7, lr}
 554              		.cfi_def_cfa_offset 8
 555              		.cfi_offset 7, -8
 556              		.cfi_offset 14, -4
 557 0002 8EB0     		sub	sp, sp, #56
 558              		.cfi_def_cfa_offset 64
 559 0004 00AF     		add	r7, sp, #0
 560              		.cfi_def_cfa_register 7
 276:./Core/Src/main.c **** 
 277:./Core/Src/main.c ****   /* USER CODE BEGIN TIM3_Init 0 */
 278:./Core/Src/main.c **** 
 279:./Core/Src/main.c ****   /* USER CODE END TIM3_Init 0 */
 280:./Core/Src/main.c **** 
 281:./Core/Src/main.c ****   TIM_ClockConfigTypeDef sClockSourceConfig = {0};
 561              		.loc 1 281 26
 562 0006 07F12803 		add	r3, r7, #40
 563 000a 0022     		movs	r2, #0
 564 000c 1A60     		str	r2, [r3]
 565 000e 5A60     		str	r2, [r3, #4]
 566 0010 9A60     		str	r2, [r3, #8]
 567 0012 DA60     		str	r2, [r3, #12]
 282:./Core/Src/main.c ****   TIM_MasterConfigTypeDef sMasterConfig = {0};
 568              		.loc 1 282 27
 569 0014 07F12003 		add	r3, r7, #32
 570 0018 0022     		movs	r2, #0
 571 001a 1A60     		str	r2, [r3]
 572 001c 5A60     		str	r2, [r3, #4]
ARM GAS  C:\Users\ASUS\AppData\Local\Temp\ccVQgeFh.s 			page 16


 283:./Core/Src/main.c ****   TIM_OC_InitTypeDef sConfigOC = {0};
 573              		.loc 1 283 22
 574 001e 3B1D     		adds	r3, r7, #4
 575 0020 0022     		movs	r2, #0
 576 0022 1A60     		str	r2, [r3]
 577 0024 5A60     		str	r2, [r3, #4]
 578 0026 9A60     		str	r2, [r3, #8]
 579 0028 DA60     		str	r2, [r3, #12]
 580 002a 1A61     		str	r2, [r3, #16]
 581 002c 5A61     		str	r2, [r3, #20]
 582 002e 9A61     		str	r2, [r3, #24]
 284:./Core/Src/main.c **** 
 285:./Core/Src/main.c ****   /* USER CODE BEGIN TIM3_Init 1 */
 286:./Core/Src/main.c **** 
 287:./Core/Src/main.c ****   /* USER CODE END TIM3_Init 1 */
 288:./Core/Src/main.c ****   htim3.Instance = TIM3;
 583              		.loc 1 288 18
 584 0030 2C4B     		ldr	r3, .L32
 585 0032 2D4A     		ldr	r2, .L32+4
 586 0034 1A60     		str	r2, [r3]
 289:./Core/Src/main.c ****   htim3.Init.Prescaler = 63;
 587              		.loc 1 289 24
 588 0036 2B4B     		ldr	r3, .L32
 589 0038 3F22     		movs	r2, #63
 590 003a 5A60     		str	r2, [r3, #4]
 290:./Core/Src/main.c ****   htim3.Init.CounterMode = TIM_COUNTERMODE_UP;
 591              		.loc 1 290 26
 592 003c 294B     		ldr	r3, .L32
 593 003e 0022     		movs	r2, #0
 594 0040 9A60     		str	r2, [r3, #8]
 291:./Core/Src/main.c ****   htim3.Init.Period = 999;
 595              		.loc 1 291 21
 596 0042 284B     		ldr	r3, .L32
 597 0044 40F2E732 		movw	r2, #999
 598 0048 DA60     		str	r2, [r3, #12]
 292:./Core/Src/main.c ****   htim3.Init.ClockDivision = TIM_CLOCKDIVISION_DIV1;
 599              		.loc 1 292 28
 600 004a 264B     		ldr	r3, .L32
 601 004c 0022     		movs	r2, #0
 602 004e 1A61     		str	r2, [r3, #16]
 293:./Core/Src/main.c ****   htim3.Init.AutoReloadPreload = TIM_AUTORELOAD_PRELOAD_DISABLE;
 603              		.loc 1 293 32
 604 0050 244B     		ldr	r3, .L32
 605 0052 0022     		movs	r2, #0
 606 0054 9A61     		str	r2, [r3, #24]
 294:./Core/Src/main.c ****   if (HAL_TIM_Base_Init(&htim3) != HAL_OK)
 607              		.loc 1 294 7
 608 0056 2348     		ldr	r0, .L32
 609 0058 FFF7FEFF 		bl	HAL_TIM_Base_Init
 610 005c 0346     		mov	r3, r0
 611              		.loc 1 294 6
 612 005e 002B     		cmp	r3, #0
 613 0060 01D0     		beq	.L27
 295:./Core/Src/main.c ****   {
 296:./Core/Src/main.c ****     Error_Handler();
 614              		.loc 1 296 5
 615 0062 FFF7FEFF 		bl	Error_Handler
ARM GAS  C:\Users\ASUS\AppData\Local\Temp\ccVQgeFh.s 			page 17


 616              	.L27:
 297:./Core/Src/main.c ****   }
 298:./Core/Src/main.c ****   sClockSourceConfig.ClockSource = TIM_CLOCKSOURCE_INTERNAL;
 617              		.loc 1 298 34
 618 0066 4FF48053 		mov	r3, #4096
 619 006a BB62     		str	r3, [r7, #40]
 299:./Core/Src/main.c ****   if (HAL_TIM_ConfigClockSource(&htim3, &sClockSourceConfig) != HAL_OK)
 620              		.loc 1 299 7
 621 006c 07F12803 		add	r3, r7, #40
 622 0070 1946     		mov	r1, r3
 623 0072 1C48     		ldr	r0, .L32
 624 0074 FFF7FEFF 		bl	HAL_TIM_ConfigClockSource
 625 0078 0346     		mov	r3, r0
 626              		.loc 1 299 6
 627 007a 002B     		cmp	r3, #0
 628 007c 01D0     		beq	.L28
 300:./Core/Src/main.c ****   {
 301:./Core/Src/main.c ****     Error_Handler();
 629              		.loc 1 301 5
 630 007e FFF7FEFF 		bl	Error_Handler
 631              	.L28:
 302:./Core/Src/main.c ****   }
 303:./Core/Src/main.c ****   if (HAL_TIM_PWM_Init(&htim3) != HAL_OK)
 632              		.loc 1 303 7
 633 0082 1848     		ldr	r0, .L32
 634 0084 FFF7FEFF 		bl	HAL_TIM_PWM_Init
 635 0088 0346     		mov	r3, r0
 636              		.loc 1 303 6
 637 008a 002B     		cmp	r3, #0
 638 008c 01D0     		beq	.L29
 304:./Core/Src/main.c ****   {
 305:./Core/Src/main.c ****     Error_Handler();
 639              		.loc 1 305 5
 640 008e FFF7FEFF 		bl	Error_Handler
 641              	.L29:
 306:./Core/Src/main.c ****   }
 307:./Core/Src/main.c ****   sMasterConfig.MasterOutputTrigger = TIM_TRGO_RESET;
 642              		.loc 1 307 37
 643 0092 0023     		movs	r3, #0
 644 0094 3B62     		str	r3, [r7, #32]
 308:./Core/Src/main.c ****   sMasterConfig.MasterSlaveMode = TIM_MASTERSLAVEMODE_DISABLE;
 645              		.loc 1 308 33
 646 0096 0023     		movs	r3, #0
 647 0098 7B62     		str	r3, [r7, #36]
 309:./Core/Src/main.c ****   if (HAL_TIMEx_MasterConfigSynchronization(&htim3, &sMasterConfig) != HAL_OK)
 648              		.loc 1 309 7
 649 009a 07F12003 		add	r3, r7, #32
 650 009e 1946     		mov	r1, r3
 651 00a0 1048     		ldr	r0, .L32
 652 00a2 FFF7FEFF 		bl	HAL_TIMEx_MasterConfigSynchronization
 653 00a6 0346     		mov	r3, r0
 654              		.loc 1 309 6
 655 00a8 002B     		cmp	r3, #0
 656 00aa 01D0     		beq	.L30
 310:./Core/Src/main.c ****   {
 311:./Core/Src/main.c ****     Error_Handler();
 657              		.loc 1 311 5
ARM GAS  C:\Users\ASUS\AppData\Local\Temp\ccVQgeFh.s 			page 18


 658 00ac FFF7FEFF 		bl	Error_Handler
 659              	.L30:
 312:./Core/Src/main.c ****   }
 313:./Core/Src/main.c ****   sConfigOC.OCMode = TIM_OCMODE_PWM1;
 660              		.loc 1 313 20
 661 00b0 6023     		movs	r3, #96
 662 00b2 7B60     		str	r3, [r7, #4]
 314:./Core/Src/main.c ****   sConfigOC.Pulse = 0;
 663              		.loc 1 314 19
 664 00b4 0023     		movs	r3, #0
 665 00b6 BB60     		str	r3, [r7, #8]
 315:./Core/Src/main.c ****   sConfigOC.OCPolarity = TIM_OCPOLARITY_HIGH;
 666              		.loc 1 315 24
 667 00b8 0023     		movs	r3, #0
 668 00ba FB60     		str	r3, [r7, #12]
 316:./Core/Src/main.c ****   sConfigOC.OCFastMode = TIM_OCFAST_DISABLE;
 669              		.loc 1 316 24
 670 00bc 0023     		movs	r3, #0
 671 00be 7B61     		str	r3, [r7, #20]
 317:./Core/Src/main.c ****   if (HAL_TIM_PWM_ConfigChannel(&htim3, &sConfigOC, TIM_CHANNEL_1) != HAL_OK)
 672              		.loc 1 317 7
 673 00c0 3B1D     		adds	r3, r7, #4
 674 00c2 0022     		movs	r2, #0
 675 00c4 1946     		mov	r1, r3
 676 00c6 0748     		ldr	r0, .L32
 677 00c8 FFF7FEFF 		bl	HAL_TIM_PWM_ConfigChannel
 678 00cc 0346     		mov	r3, r0
 679              		.loc 1 317 6
 680 00ce 002B     		cmp	r3, #0
 681 00d0 01D0     		beq	.L31
 318:./Core/Src/main.c ****   {
 319:./Core/Src/main.c ****     Error_Handler();
 682              		.loc 1 319 5
 683 00d2 FFF7FEFF 		bl	Error_Handler
 684              	.L31:
 320:./Core/Src/main.c ****   }
 321:./Core/Src/main.c ****   /* USER CODE BEGIN TIM3_Init 2 */
 322:./Core/Src/main.c **** 
 323:./Core/Src/main.c ****   /* USER CODE END TIM3_Init 2 */
 324:./Core/Src/main.c ****   HAL_TIM_MspPostInit(&htim3);
 685              		.loc 1 324 3
 686 00d6 0348     		ldr	r0, .L32
 687 00d8 FFF7FEFF 		bl	HAL_TIM_MspPostInit
 325:./Core/Src/main.c **** 
 326:./Core/Src/main.c **** }
 688              		.loc 1 326 1
 689 00dc 00BF     		nop
 690 00de 3837     		adds	r7, r7, #56
 691              		.cfi_def_cfa_offset 8
 692 00e0 BD46     		mov	sp, r7
 693              		.cfi_def_cfa_register 13
 694              		@ sp needed
 695 00e2 80BD     		pop	{r7, pc}
 696              	.L33:
 697              		.align	2
 698              	.L32:
 699 00e4 00000000 		.word	htim3
ARM GAS  C:\Users\ASUS\AppData\Local\Temp\ccVQgeFh.s 			page 19


 700 00e8 00040040 		.word	1073742848
 701              		.cfi_endproc
 702              	.LFE71:
 704              		.section	.text.MX_USART2_UART_Init,"ax",%progbits
 705              		.align	1
 706              		.syntax unified
 707              		.thumb
 708              		.thumb_func
 710              	MX_USART2_UART_Init:
 711              	.LFB72:
 327:./Core/Src/main.c **** 
 328:./Core/Src/main.c **** /**
 329:./Core/Src/main.c ****   * @brief USART2 Initialization Function
 330:./Core/Src/main.c ****   * @param None
 331:./Core/Src/main.c ****   * @retval None
 332:./Core/Src/main.c ****   */
 333:./Core/Src/main.c **** static void MX_USART2_UART_Init(void)
 334:./Core/Src/main.c **** {
 712              		.loc 1 334 1
 713              		.cfi_startproc
 714              		@ args = 0, pretend = 0, frame = 0
 715              		@ frame_needed = 1, uses_anonymous_args = 0
 716 0000 80B5     		push	{r7, lr}
 717              		.cfi_def_cfa_offset 8
 718              		.cfi_offset 7, -8
 719              		.cfi_offset 14, -4
 720 0002 00AF     		add	r7, sp, #0
 721              		.cfi_def_cfa_register 7
 335:./Core/Src/main.c **** 
 336:./Core/Src/main.c ****   /* USER CODE BEGIN USART2_Init 0 */
 337:./Core/Src/main.c **** 
 338:./Core/Src/main.c ****   /* USER CODE END USART2_Init 0 */
 339:./Core/Src/main.c **** 
 340:./Core/Src/main.c ****   /* USER CODE BEGIN USART2_Init 1 */
 341:./Core/Src/main.c **** 
 342:./Core/Src/main.c ****   /* USER CODE END USART2_Init 1 */
 343:./Core/Src/main.c ****   huart2.Instance = USART2;
 722              		.loc 1 343 19
 723 0004 114B     		ldr	r3, .L37
 724 0006 124A     		ldr	r2, .L37+4
 725 0008 1A60     		str	r2, [r3]
 344:./Core/Src/main.c ****   huart2.Init.BaudRate = 115200;
 726              		.loc 1 344 24
 727 000a 104B     		ldr	r3, .L37
 728 000c 4FF4E132 		mov	r2, #115200
 729 0010 5A60     		str	r2, [r3, #4]
 345:./Core/Src/main.c ****   huart2.Init.WordLength = UART_WORDLENGTH_8B;
 730              		.loc 1 345 26
 731 0012 0E4B     		ldr	r3, .L37
 732 0014 0022     		movs	r2, #0
 733 0016 9A60     		str	r2, [r3, #8]
 346:./Core/Src/main.c ****   huart2.Init.StopBits = UART_STOPBITS_1;
 734              		.loc 1 346 24
 735 0018 0C4B     		ldr	r3, .L37
 736 001a 0022     		movs	r2, #0
 737 001c DA60     		str	r2, [r3, #12]
 347:./Core/Src/main.c ****   huart2.Init.Parity = UART_PARITY_NONE;
ARM GAS  C:\Users\ASUS\AppData\Local\Temp\ccVQgeFh.s 			page 20


 738              		.loc 1 347 22
 739 001e 0B4B     		ldr	r3, .L37
 740 0020 0022     		movs	r2, #0
 741 0022 1A61     		str	r2, [r3, #16]
 348:./Core/Src/main.c ****   huart2.Init.Mode = UART_MODE_TX_RX;
 742              		.loc 1 348 20
 743 0024 094B     		ldr	r3, .L37
 744 0026 0C22     		movs	r2, #12
 745 0028 5A61     		str	r2, [r3, #20]
 349:./Core/Src/main.c ****   huart2.Init.HwFlowCtl = UART_HWCONTROL_NONE;
 746              		.loc 1 349 25
 747 002a 084B     		ldr	r3, .L37
 748 002c 0022     		movs	r2, #0
 749 002e 9A61     		str	r2, [r3, #24]
 350:./Core/Src/main.c ****   huart2.Init.OverSampling = UART_OVERSAMPLING_16;
 750              		.loc 1 350 28
 751 0030 064B     		ldr	r3, .L37
 752 0032 0022     		movs	r2, #0
 753 0034 DA61     		str	r2, [r3, #28]
 351:./Core/Src/main.c ****   if (HAL_UART_Init(&huart2) != HAL_OK)
 754              		.loc 1 351 7
 755 0036 0548     		ldr	r0, .L37
 756 0038 FFF7FEFF 		bl	HAL_UART_Init
 757 003c 0346     		mov	r3, r0
 758              		.loc 1 351 6
 759 003e 002B     		cmp	r3, #0
 760 0040 01D0     		beq	.L36
 352:./Core/Src/main.c ****   {
 353:./Core/Src/main.c ****     Error_Handler();
 761              		.loc 1 353 5
 762 0042 FFF7FEFF 		bl	Error_Handler
 763              	.L36:
 354:./Core/Src/main.c ****   }
 355:./Core/Src/main.c ****   /* USER CODE BEGIN USART2_Init 2 */
 356:./Core/Src/main.c **** 
 357:./Core/Src/main.c ****   /* USER CODE END USART2_Init 2 */
 358:./Core/Src/main.c **** 
 359:./Core/Src/main.c **** }
 764              		.loc 1 359 1
 765 0046 00BF     		nop
 766 0048 80BD     		pop	{r7, pc}
 767              	.L38:
 768 004a 00BF     		.align	2
 769              	.L37:
 770 004c 00000000 		.word	huart2
 771 0050 00440040 		.word	1073759232
 772              		.cfi_endproc
 773              	.LFE72:
 775              		.section	.text.MX_GPIO_Init,"ax",%progbits
 776              		.align	1
 777              		.syntax unified
 778              		.thumb
 779              		.thumb_func
 781              	MX_GPIO_Init:
 782              	.LFB73:
 360:./Core/Src/main.c **** 
 361:./Core/Src/main.c **** /**
ARM GAS  C:\Users\ASUS\AppData\Local\Temp\ccVQgeFh.s 			page 21


 362:./Core/Src/main.c ****   * @brief GPIO Initialization Function
 363:./Core/Src/main.c ****   * @param None
 364:./Core/Src/main.c ****   * @retval None
 365:./Core/Src/main.c ****   */
 366:./Core/Src/main.c **** static void MX_GPIO_Init(void)
 367:./Core/Src/main.c **** {
 783              		.loc 1 367 1
 784              		.cfi_startproc
 785              		@ args = 0, pretend = 0, frame = 32
 786              		@ frame_needed = 1, uses_anonymous_args = 0
 787 0000 80B5     		push	{r7, lr}
 788              		.cfi_def_cfa_offset 8
 789              		.cfi_offset 7, -8
 790              		.cfi_offset 14, -4
 791 0002 88B0     		sub	sp, sp, #32
 792              		.cfi_def_cfa_offset 40
 793 0004 00AF     		add	r7, sp, #0
 794              		.cfi_def_cfa_register 7
 368:./Core/Src/main.c ****   GPIO_InitTypeDef GPIO_InitStruct = {0};
 795              		.loc 1 368 20
 796 0006 07F11003 		add	r3, r7, #16
 797 000a 0022     		movs	r2, #0
 798 000c 1A60     		str	r2, [r3]
 799 000e 5A60     		str	r2, [r3, #4]
 800 0010 9A60     		str	r2, [r3, #8]
 801 0012 DA60     		str	r2, [r3, #12]
 802              	.LBB6:
 369:./Core/Src/main.c **** 
 370:./Core/Src/main.c ****   /* GPIO Ports Clock Enable */
 371:./Core/Src/main.c ****   __HAL_RCC_GPIOC_CLK_ENABLE();
 803              		.loc 1 371 3
 804 0014 454B     		ldr	r3, .L40
 805 0016 9B69     		ldr	r3, [r3, #24]
 806 0018 444A     		ldr	r2, .L40
 807 001a 43F01003 		orr	r3, r3, #16
 808 001e 9361     		str	r3, [r2, #24]
 809 0020 424B     		ldr	r3, .L40
 810 0022 9B69     		ldr	r3, [r3, #24]
 811 0024 03F01003 		and	r3, r3, #16
 812 0028 FB60     		str	r3, [r7, #12]
 813 002a FB68     		ldr	r3, [r7, #12]
 814              	.LBE6:
 815              	.LBB7:
 372:./Core/Src/main.c ****   __HAL_RCC_GPIOD_CLK_ENABLE();
 816              		.loc 1 372 3
 817 002c 3F4B     		ldr	r3, .L40
 818 002e 9B69     		ldr	r3, [r3, #24]
 819 0030 3E4A     		ldr	r2, .L40
 820 0032 43F02003 		orr	r3, r3, #32
 821 0036 9361     		str	r3, [r2, #24]
 822 0038 3C4B     		ldr	r3, .L40
 823 003a 9B69     		ldr	r3, [r3, #24]
 824 003c 03F02003 		and	r3, r3, #32
 825 0040 BB60     		str	r3, [r7, #8]
 826 0042 BB68     		ldr	r3, [r7, #8]
 827              	.LBE7:
 828              	.LBB8:
ARM GAS  C:\Users\ASUS\AppData\Local\Temp\ccVQgeFh.s 			page 22


 373:./Core/Src/main.c ****   __HAL_RCC_GPIOA_CLK_ENABLE();
 829              		.loc 1 373 3
 830 0044 394B     		ldr	r3, .L40
 831 0046 9B69     		ldr	r3, [r3, #24]
 832 0048 384A     		ldr	r2, .L40
 833 004a 43F00403 		orr	r3, r3, #4
 834 004e 9361     		str	r3, [r2, #24]
 835 0050 364B     		ldr	r3, .L40
 836 0052 9B69     		ldr	r3, [r3, #24]
 837 0054 03F00403 		and	r3, r3, #4
 838 0058 7B60     		str	r3, [r7, #4]
 839 005a 7B68     		ldr	r3, [r7, #4]
 840              	.LBE8:
 841              	.LBB9:
 374:./Core/Src/main.c ****   __HAL_RCC_GPIOB_CLK_ENABLE();
 842              		.loc 1 374 3
 843 005c 334B     		ldr	r3, .L40
 844 005e 9B69     		ldr	r3, [r3, #24]
 845 0060 324A     		ldr	r2, .L40
 846 0062 43F00803 		orr	r3, r3, #8
 847 0066 9361     		str	r3, [r2, #24]
 848 0068 304B     		ldr	r3, .L40
 849 006a 9B69     		ldr	r3, [r3, #24]
 850 006c 03F00803 		and	r3, r3, #8
 851 0070 3B60     		str	r3, [r7]
 852 0072 3B68     		ldr	r3, [r7]
 853              	.LBE9:
 375:./Core/Src/main.c **** 
 376:./Core/Src/main.c ****   /*Configure GPIO pin Output Level */
 377:./Core/Src/main.c ****   HAL_GPIO_WritePin(GPIOA, LD2_Pin|LED3B_Pin|LED1A_Pin, GPIO_PIN_RESET);
 854              		.loc 1 377 3
 855 0074 0022     		movs	r2, #0
 856 0076 4FF4A461 		mov	r1, #1312
 857 007a 2D48     		ldr	r0, .L40+4
 858 007c FFF7FEFF 		bl	HAL_GPIO_WritePin
 378:./Core/Src/main.c **** 
 379:./Core/Src/main.c ****   /*Configure GPIO pin Output Level */
 380:./Core/Src/main.c ****   HAL_GPIO_WritePin(GPIOB, LED_RED1_Pin|LED3A_Pin|LED_YELLOW1_Pin|LED_GREEN1_Pin
 859              		.loc 1 380 3
 860 0080 0022     		movs	r2, #0
 861 0082 4FF6BC71 		movw	r1, #65468
 862 0086 2B48     		ldr	r0, .L40+8
 863 0088 FFF7FEFF 		bl	HAL_GPIO_WritePin
 381:./Core/Src/main.c ****                           |LED_RED2_Pin|LED_YELLOW2_Pin|LED_GREEN2_Pin|LED1B_Pin
 382:./Core/Src/main.c ****                           |LED2B_Pin|LED2A_Pin|LED_RED3_Pin|LED_YELLOW3_Pin
 383:./Core/Src/main.c ****                           |LED_GREEN3_Pin, GPIO_PIN_RESET);
 384:./Core/Src/main.c **** 
 385:./Core/Src/main.c ****   /*Configure GPIO pin : B1_Pin */
 386:./Core/Src/main.c ****   GPIO_InitStruct.Pin = B1_Pin;
 864              		.loc 1 386 23
 865 008c 4FF40053 		mov	r3, #8192
 866 0090 3B61     		str	r3, [r7, #16]
 387:./Core/Src/main.c ****   GPIO_InitStruct.Mode = GPIO_MODE_IT_RISING;
 867              		.loc 1 387 24
 868 0092 294B     		ldr	r3, .L40+12
 869 0094 7B61     		str	r3, [r7, #20]
 388:./Core/Src/main.c ****   GPIO_InitStruct.Pull = GPIO_PULLUP;
ARM GAS  C:\Users\ASUS\AppData\Local\Temp\ccVQgeFh.s 			page 23


 870              		.loc 1 388 24
 871 0096 0123     		movs	r3, #1
 872 0098 BB61     		str	r3, [r7, #24]
 389:./Core/Src/main.c ****   HAL_GPIO_Init(B1_GPIO_Port, &GPIO_InitStruct);
 873              		.loc 1 389 3
 874 009a 07F11003 		add	r3, r7, #16
 875 009e 1946     		mov	r1, r3
 876 00a0 2648     		ldr	r0, .L40+16
 877 00a2 FFF7FEFF 		bl	HAL_GPIO_Init
 390:./Core/Src/main.c **** 
 391:./Core/Src/main.c ****   /*Configure GPIO pins : BUTTONUSER_Pin BUTTON1_Pin BUTTON2_Pin */
 392:./Core/Src/main.c ****   GPIO_InitStruct.Pin = BUTTONUSER_Pin|BUTTON1_Pin|BUTTON2_Pin;
 878              		.loc 1 392 23
 879 00a6 1323     		movs	r3, #19
 880 00a8 3B61     		str	r3, [r7, #16]
 393:./Core/Src/main.c ****   GPIO_InitStruct.Mode = GPIO_MODE_INPUT;
 881              		.loc 1 393 24
 882 00aa 0023     		movs	r3, #0
 883 00ac 7B61     		str	r3, [r7, #20]
 394:./Core/Src/main.c ****   GPIO_InitStruct.Pull = GPIO_PULLUP;
 884              		.loc 1 394 24
 885 00ae 0123     		movs	r3, #1
 886 00b0 BB61     		str	r3, [r7, #24]
 395:./Core/Src/main.c ****   HAL_GPIO_Init(GPIOA, &GPIO_InitStruct);
 887              		.loc 1 395 3
 888 00b2 07F11003 		add	r3, r7, #16
 889 00b6 1946     		mov	r1, r3
 890 00b8 1D48     		ldr	r0, .L40+4
 891 00ba FFF7FEFF 		bl	HAL_GPIO_Init
 396:./Core/Src/main.c **** 
 397:./Core/Src/main.c ****   /*Configure GPIO pins : LD2_Pin LED3B_Pin LED1A_Pin */
 398:./Core/Src/main.c ****   GPIO_InitStruct.Pin = LD2_Pin|LED3B_Pin|LED1A_Pin;
 892              		.loc 1 398 23
 893 00be 4FF4A463 		mov	r3, #1312
 894 00c2 3B61     		str	r3, [r7, #16]
 399:./Core/Src/main.c ****   GPIO_InitStruct.Mode = GPIO_MODE_OUTPUT_PP;
 895              		.loc 1 399 24
 896 00c4 0123     		movs	r3, #1
 897 00c6 7B61     		str	r3, [r7, #20]
 400:./Core/Src/main.c ****   GPIO_InitStruct.Pull = GPIO_NOPULL;
 898              		.loc 1 400 24
 899 00c8 0023     		movs	r3, #0
 900 00ca BB61     		str	r3, [r7, #24]
 401:./Core/Src/main.c ****   GPIO_InitStruct.Speed = GPIO_SPEED_FREQ_LOW;
 901              		.loc 1 401 25
 902 00cc 0223     		movs	r3, #2
 903 00ce FB61     		str	r3, [r7, #28]
 402:./Core/Src/main.c ****   HAL_GPIO_Init(GPIOA, &GPIO_InitStruct);
 904              		.loc 1 402 3
 905 00d0 07F11003 		add	r3, r7, #16
 906 00d4 1946     		mov	r1, r3
 907 00d6 1648     		ldr	r0, .L40+4
 908 00d8 FFF7FEFF 		bl	HAL_GPIO_Init
 403:./Core/Src/main.c **** 
 404:./Core/Src/main.c ****   /*Configure GPIO pin : BUTTON3_Pin */
 405:./Core/Src/main.c ****   GPIO_InitStruct.Pin = BUTTON3_Pin;
 909              		.loc 1 405 23
ARM GAS  C:\Users\ASUS\AppData\Local\Temp\ccVQgeFh.s 			page 24


 910 00dc 0123     		movs	r3, #1
 911 00de 3B61     		str	r3, [r7, #16]
 406:./Core/Src/main.c ****   GPIO_InitStruct.Mode = GPIO_MODE_INPUT;
 912              		.loc 1 406 24
 913 00e0 0023     		movs	r3, #0
 914 00e2 7B61     		str	r3, [r7, #20]
 407:./Core/Src/main.c ****   GPIO_InitStruct.Pull = GPIO_PULLUP;
 915              		.loc 1 407 24
 916 00e4 0123     		movs	r3, #1
 917 00e6 BB61     		str	r3, [r7, #24]
 408:./Core/Src/main.c ****   HAL_GPIO_Init(BUTTON3_GPIO_Port, &GPIO_InitStruct);
 918              		.loc 1 408 3
 919 00e8 07F11003 		add	r3, r7, #16
 920 00ec 1946     		mov	r1, r3
 921 00ee 1148     		ldr	r0, .L40+8
 922 00f0 FFF7FEFF 		bl	HAL_GPIO_Init
 409:./Core/Src/main.c **** 
 410:./Core/Src/main.c ****   /*Configure GPIO pins : LED_RED1_Pin LED3A_Pin LED_YELLOW1_Pin LED_GREEN1_Pin
 411:./Core/Src/main.c ****                            LED_RED2_Pin LED_YELLOW2_Pin LED_GREEN2_Pin LED1B_Pin
 412:./Core/Src/main.c ****                            LED2B_Pin LED2A_Pin LED_RED3_Pin LED_YELLOW3_Pin
 413:./Core/Src/main.c ****                            LED_GREEN3_Pin */
 414:./Core/Src/main.c ****   GPIO_InitStruct.Pin = LED_RED1_Pin|LED3A_Pin|LED_YELLOW1_Pin|LED_GREEN1_Pin
 923              		.loc 1 414 23
 924 00f4 4FF6BC73 		movw	r3, #65468
 925 00f8 3B61     		str	r3, [r7, #16]
 415:./Core/Src/main.c ****                           |LED_RED2_Pin|LED_YELLOW2_Pin|LED_GREEN2_Pin|LED1B_Pin
 416:./Core/Src/main.c ****                           |LED2B_Pin|LED2A_Pin|LED_RED3_Pin|LED_YELLOW3_Pin
 417:./Core/Src/main.c ****                           |LED_GREEN3_Pin;
 418:./Core/Src/main.c ****   GPIO_InitStruct.Mode = GPIO_MODE_OUTPUT_PP;
 926              		.loc 1 418 24
 927 00fa 0123     		movs	r3, #1
 928 00fc 7B61     		str	r3, [r7, #20]
 419:./Core/Src/main.c ****   GPIO_InitStruct.Pull = GPIO_NOPULL;
 929              		.loc 1 419 24
 930 00fe 0023     		movs	r3, #0
 931 0100 BB61     		str	r3, [r7, #24]
 420:./Core/Src/main.c ****   GPIO_InitStruct.Speed = GPIO_SPEED_FREQ_LOW;
 932              		.loc 1 420 25
 933 0102 0223     		movs	r3, #2
 934 0104 FB61     		str	r3, [r7, #28]
 421:./Core/Src/main.c ****   HAL_GPIO_Init(GPIOB, &GPIO_InitStruct);
 935              		.loc 1 421 3
 936 0106 07F11003 		add	r3, r7, #16
 937 010a 1946     		mov	r1, r3
 938 010c 0948     		ldr	r0, .L40+8
 939 010e FFF7FEFF 		bl	HAL_GPIO_Init
 422:./Core/Src/main.c **** 
 423:./Core/Src/main.c ****   /* EXTI interrupt init*/
 424:./Core/Src/main.c ****   HAL_NVIC_SetPriority(EXTI15_10_IRQn, 0, 0);
 940              		.loc 1 424 3
 941 0112 0022     		movs	r2, #0
 942 0114 0021     		movs	r1, #0
 943 0116 2820     		movs	r0, #40
 944 0118 FFF7FEFF 		bl	HAL_NVIC_SetPriority
 425:./Core/Src/main.c ****   HAL_NVIC_EnableIRQ(EXTI15_10_IRQn);
 945              		.loc 1 425 3
 946 011c 2820     		movs	r0, #40
ARM GAS  C:\Users\ASUS\AppData\Local\Temp\ccVQgeFh.s 			page 25


 947 011e FFF7FEFF 		bl	HAL_NVIC_EnableIRQ
 426:./Core/Src/main.c **** 
 427:./Core/Src/main.c **** }
 948              		.loc 1 427 1
 949 0122 00BF     		nop
 950 0124 2037     		adds	r7, r7, #32
 951              		.cfi_def_cfa_offset 8
 952 0126 BD46     		mov	sp, r7
 953              		.cfi_def_cfa_register 13
 954              		@ sp needed
 955 0128 80BD     		pop	{r7, pc}
 956              	.L41:
 957 012a 00BF     		.align	2
 958              	.L40:
 959 012c 00100240 		.word	1073876992
 960 0130 00080140 		.word	1073809408
 961 0134 000C0140 		.word	1073810432
 962 0138 00001110 		.word	269549568
 963 013c 00100140 		.word	1073811456
 964              		.cfi_endproc
 965              	.LFE73:
 967              		.section	.text.HAL_TIM_PeriodElapsedCallback,"ax",%progbits
 968              		.align	1
 969              		.global	HAL_TIM_PeriodElapsedCallback
 970              		.syntax unified
 971              		.thumb
 972              		.thumb_func
 974              	HAL_TIM_PeriodElapsedCallback:
 975              	.LFB74:
 428:./Core/Src/main.c **** 
 429:./Core/Src/main.c **** /* USER CODE BEGIN 4 */
 430:./Core/Src/main.c **** void HAL_TIM_PeriodElapsedCallback(TIM_HandleTypeDef *htim){
 976              		.loc 1 430 60
 977              		.cfi_startproc
 978              		@ args = 0, pretend = 0, frame = 8
 979              		@ frame_needed = 1, uses_anonymous_args = 0
 980 0000 80B5     		push	{r7, lr}
 981              		.cfi_def_cfa_offset 8
 982              		.cfi_offset 7, -8
 983              		.cfi_offset 14, -4
 984 0002 82B0     		sub	sp, sp, #8
 985              		.cfi_def_cfa_offset 16
 986 0004 00AF     		add	r7, sp, #0
 987              		.cfi_def_cfa_register 7
 988 0006 7860     		str	r0, [r7, #4]
 431:./Core/Src/main.c **** 	timerRun();
 989              		.loc 1 431 2
 990 0008 FFF7FEFF 		bl	timerRun
 432:./Core/Src/main.c **** 	getKeyInput1();
 991              		.loc 1 432 2
 992 000c FFF7FEFF 		bl	getKeyInput1
 433:./Core/Src/main.c **** 	getKeyInput2();
 993              		.loc 1 433 2
 994 0010 FFF7FEFF 		bl	getKeyInput2
 434:./Core/Src/main.c **** 	getKeyInput3();
 995              		.loc 1 434 2
 996 0014 FFF7FEFF 		bl	getKeyInput3
ARM GAS  C:\Users\ASUS\AppData\Local\Temp\ccVQgeFh.s 			page 26


 435:./Core/Src/main.c **** 	getKeyInput4();
 997              		.loc 1 435 2
 998 0018 FFF7FEFF 		bl	getKeyInput4
 436:./Core/Src/main.c **** }
 999              		.loc 1 436 1
 1000 001c 00BF     		nop
 1001 001e 0837     		adds	r7, r7, #8
 1002              		.cfi_def_cfa_offset 8
 1003 0020 BD46     		mov	sp, r7
 1004              		.cfi_def_cfa_register 13
 1005              		@ sp needed
 1006 0022 80BD     		pop	{r7, pc}
 1007              		.cfi_endproc
 1008              	.LFE74:
 1010              		.section	.text.Error_Handler,"ax",%progbits
 1011              		.align	1
 1012              		.global	Error_Handler
 1013              		.syntax unified
 1014              		.thumb
 1015              		.thumb_func
 1017              	Error_Handler:
 1018              	.LFB75:
 437:./Core/Src/main.c **** /* USER CODE END 4 */
 438:./Core/Src/main.c **** 
 439:./Core/Src/main.c **** /**
 440:./Core/Src/main.c ****   * @brief  This function is executed in case of error occurrence.
 441:./Core/Src/main.c ****   * @retval None
 442:./Core/Src/main.c ****   */
 443:./Core/Src/main.c **** void Error_Handler(void)
 444:./Core/Src/main.c **** {
 1019              		.loc 1 444 1
 1020              		.cfi_startproc
 1021              		@ args = 0, pretend = 0, frame = 0
 1022              		@ frame_needed = 1, uses_anonymous_args = 0
 1023              		@ link register save eliminated.
 1024 0000 80B4     		push	{r7}
 1025              		.cfi_def_cfa_offset 4
 1026              		.cfi_offset 7, -4
 1027 0002 00AF     		add	r7, sp, #0
 1028              		.cfi_def_cfa_register 7
 1029              	.LBB10:
 1030              	.LBB11:
 1031              		.file 2 "Drivers/CMSIS/Include/cmsis_gcc.h"
   1:Drivers/CMSIS/Include/cmsis_gcc.h **** /**************************************************************************//**
   2:Drivers/CMSIS/Include/cmsis_gcc.h ****  * @file     cmsis_gcc.h
   3:Drivers/CMSIS/Include/cmsis_gcc.h ****  * @brief    CMSIS compiler GCC header file
   4:Drivers/CMSIS/Include/cmsis_gcc.h ****  * @version  V5.0.4
   5:Drivers/CMSIS/Include/cmsis_gcc.h ****  * @date     09. April 2018
   6:Drivers/CMSIS/Include/cmsis_gcc.h ****  ******************************************************************************/
   7:Drivers/CMSIS/Include/cmsis_gcc.h **** /*
   8:Drivers/CMSIS/Include/cmsis_gcc.h ****  * Copyright (c) 2009-2018 Arm Limited. All rights reserved.
   9:Drivers/CMSIS/Include/cmsis_gcc.h ****  *
  10:Drivers/CMSIS/Include/cmsis_gcc.h ****  * SPDX-License-Identifier: Apache-2.0
  11:Drivers/CMSIS/Include/cmsis_gcc.h ****  *
  12:Drivers/CMSIS/Include/cmsis_gcc.h ****  * Licensed under the Apache License, Version 2.0 (the License); you may
  13:Drivers/CMSIS/Include/cmsis_gcc.h ****  * not use this file except in compliance with the License.
  14:Drivers/CMSIS/Include/cmsis_gcc.h ****  * You may obtain a copy of the License at
ARM GAS  C:\Users\ASUS\AppData\Local\Temp\ccVQgeFh.s 			page 27


  15:Drivers/CMSIS/Include/cmsis_gcc.h ****  *
  16:Drivers/CMSIS/Include/cmsis_gcc.h ****  * www.apache.org/licenses/LICENSE-2.0
  17:Drivers/CMSIS/Include/cmsis_gcc.h ****  *
  18:Drivers/CMSIS/Include/cmsis_gcc.h ****  * Unless required by applicable law or agreed to in writing, software
  19:Drivers/CMSIS/Include/cmsis_gcc.h ****  * distributed under the License is distributed on an AS IS BASIS, WITHOUT
  20:Drivers/CMSIS/Include/cmsis_gcc.h ****  * WARRANTIES OR CONDITIONS OF ANY KIND, either express or implied.
  21:Drivers/CMSIS/Include/cmsis_gcc.h ****  * See the License for the specific language governing permissions and
  22:Drivers/CMSIS/Include/cmsis_gcc.h ****  * limitations under the License.
  23:Drivers/CMSIS/Include/cmsis_gcc.h ****  */
  24:Drivers/CMSIS/Include/cmsis_gcc.h **** 
  25:Drivers/CMSIS/Include/cmsis_gcc.h **** #ifndef __CMSIS_GCC_H
  26:Drivers/CMSIS/Include/cmsis_gcc.h **** #define __CMSIS_GCC_H
  27:Drivers/CMSIS/Include/cmsis_gcc.h **** 
  28:Drivers/CMSIS/Include/cmsis_gcc.h **** /* ignore some GCC warnings */
  29:Drivers/CMSIS/Include/cmsis_gcc.h **** #pragma GCC diagnostic push
  30:Drivers/CMSIS/Include/cmsis_gcc.h **** #pragma GCC diagnostic ignored "-Wsign-conversion"
  31:Drivers/CMSIS/Include/cmsis_gcc.h **** #pragma GCC diagnostic ignored "-Wconversion"
  32:Drivers/CMSIS/Include/cmsis_gcc.h **** #pragma GCC diagnostic ignored "-Wunused-parameter"
  33:Drivers/CMSIS/Include/cmsis_gcc.h **** 
  34:Drivers/CMSIS/Include/cmsis_gcc.h **** /* Fallback for __has_builtin */
  35:Drivers/CMSIS/Include/cmsis_gcc.h **** #ifndef __has_builtin
  36:Drivers/CMSIS/Include/cmsis_gcc.h ****   #define __has_builtin(x) (0)
  37:Drivers/CMSIS/Include/cmsis_gcc.h **** #endif
  38:Drivers/CMSIS/Include/cmsis_gcc.h **** 
  39:Drivers/CMSIS/Include/cmsis_gcc.h **** /* CMSIS compiler specific defines */
  40:Drivers/CMSIS/Include/cmsis_gcc.h **** #ifndef   __ASM
  41:Drivers/CMSIS/Include/cmsis_gcc.h ****   #define __ASM                                  __asm
  42:Drivers/CMSIS/Include/cmsis_gcc.h **** #endif
  43:Drivers/CMSIS/Include/cmsis_gcc.h **** #ifndef   __INLINE
  44:Drivers/CMSIS/Include/cmsis_gcc.h ****   #define __INLINE                               inline
  45:Drivers/CMSIS/Include/cmsis_gcc.h **** #endif
  46:Drivers/CMSIS/Include/cmsis_gcc.h **** #ifndef   __STATIC_INLINE
  47:Drivers/CMSIS/Include/cmsis_gcc.h ****   #define __STATIC_INLINE                        static inline
  48:Drivers/CMSIS/Include/cmsis_gcc.h **** #endif
  49:Drivers/CMSIS/Include/cmsis_gcc.h **** #ifndef   __STATIC_FORCEINLINE                 
  50:Drivers/CMSIS/Include/cmsis_gcc.h ****   #define __STATIC_FORCEINLINE                   __attribute__((always_inline)) static inline
  51:Drivers/CMSIS/Include/cmsis_gcc.h **** #endif                                           
  52:Drivers/CMSIS/Include/cmsis_gcc.h **** #ifndef   __NO_RETURN
  53:Drivers/CMSIS/Include/cmsis_gcc.h ****   #define __NO_RETURN                            __attribute__((__noreturn__))
  54:Drivers/CMSIS/Include/cmsis_gcc.h **** #endif
  55:Drivers/CMSIS/Include/cmsis_gcc.h **** #ifndef   __USED
  56:Drivers/CMSIS/Include/cmsis_gcc.h ****   #define __USED                                 __attribute__((used))
  57:Drivers/CMSIS/Include/cmsis_gcc.h **** #endif
  58:Drivers/CMSIS/Include/cmsis_gcc.h **** #ifndef   __WEAK
  59:Drivers/CMSIS/Include/cmsis_gcc.h ****   #define __WEAK                                 __attribute__((weak))
  60:Drivers/CMSIS/Include/cmsis_gcc.h **** #endif
  61:Drivers/CMSIS/Include/cmsis_gcc.h **** #ifndef   __PACKED
  62:Drivers/CMSIS/Include/cmsis_gcc.h ****   #define __PACKED                               __attribute__((packed, aligned(1)))
  63:Drivers/CMSIS/Include/cmsis_gcc.h **** #endif
  64:Drivers/CMSIS/Include/cmsis_gcc.h **** #ifndef   __PACKED_STRUCT
  65:Drivers/CMSIS/Include/cmsis_gcc.h ****   #define __PACKED_STRUCT                        struct __attribute__((packed, aligned(1)))
  66:Drivers/CMSIS/Include/cmsis_gcc.h **** #endif
  67:Drivers/CMSIS/Include/cmsis_gcc.h **** #ifndef   __PACKED_UNION
  68:Drivers/CMSIS/Include/cmsis_gcc.h ****   #define __PACKED_UNION                         union __attribute__((packed, aligned(1)))
  69:Drivers/CMSIS/Include/cmsis_gcc.h **** #endif
  70:Drivers/CMSIS/Include/cmsis_gcc.h **** #ifndef   __UNALIGNED_UINT32        /* deprecated */
  71:Drivers/CMSIS/Include/cmsis_gcc.h ****   #pragma GCC diagnostic push
ARM GAS  C:\Users\ASUS\AppData\Local\Temp\ccVQgeFh.s 			page 28


  72:Drivers/CMSIS/Include/cmsis_gcc.h ****   #pragma GCC diagnostic ignored "-Wpacked"
  73:Drivers/CMSIS/Include/cmsis_gcc.h ****   #pragma GCC diagnostic ignored "-Wattributes"
  74:Drivers/CMSIS/Include/cmsis_gcc.h ****   struct __attribute__((packed)) T_UINT32 { uint32_t v; };
  75:Drivers/CMSIS/Include/cmsis_gcc.h ****   #pragma GCC diagnostic pop
  76:Drivers/CMSIS/Include/cmsis_gcc.h ****   #define __UNALIGNED_UINT32(x)                  (((struct T_UINT32 *)(x))->v)
  77:Drivers/CMSIS/Include/cmsis_gcc.h **** #endif
  78:Drivers/CMSIS/Include/cmsis_gcc.h **** #ifndef   __UNALIGNED_UINT16_WRITE
  79:Drivers/CMSIS/Include/cmsis_gcc.h ****   #pragma GCC diagnostic push
  80:Drivers/CMSIS/Include/cmsis_gcc.h ****   #pragma GCC diagnostic ignored "-Wpacked"
  81:Drivers/CMSIS/Include/cmsis_gcc.h ****   #pragma GCC diagnostic ignored "-Wattributes"
  82:Drivers/CMSIS/Include/cmsis_gcc.h ****   __PACKED_STRUCT T_UINT16_WRITE { uint16_t v; };
  83:Drivers/CMSIS/Include/cmsis_gcc.h ****   #pragma GCC diagnostic pop
  84:Drivers/CMSIS/Include/cmsis_gcc.h ****   #define __UNALIGNED_UINT16_WRITE(addr, val)    (void)((((struct T_UINT16_WRITE *)(void *)(addr))-
  85:Drivers/CMSIS/Include/cmsis_gcc.h **** #endif
  86:Drivers/CMSIS/Include/cmsis_gcc.h **** #ifndef   __UNALIGNED_UINT16_READ
  87:Drivers/CMSIS/Include/cmsis_gcc.h ****   #pragma GCC diagnostic push
  88:Drivers/CMSIS/Include/cmsis_gcc.h ****   #pragma GCC diagnostic ignored "-Wpacked"
  89:Drivers/CMSIS/Include/cmsis_gcc.h ****   #pragma GCC diagnostic ignored "-Wattributes"
  90:Drivers/CMSIS/Include/cmsis_gcc.h ****   __PACKED_STRUCT T_UINT16_READ { uint16_t v; };
  91:Drivers/CMSIS/Include/cmsis_gcc.h ****   #pragma GCC diagnostic pop
  92:Drivers/CMSIS/Include/cmsis_gcc.h ****   #define __UNALIGNED_UINT16_READ(addr)          (((const struct T_UINT16_READ *)(const void *)(add
  93:Drivers/CMSIS/Include/cmsis_gcc.h **** #endif
  94:Drivers/CMSIS/Include/cmsis_gcc.h **** #ifndef   __UNALIGNED_UINT32_WRITE
  95:Drivers/CMSIS/Include/cmsis_gcc.h ****   #pragma GCC diagnostic push
  96:Drivers/CMSIS/Include/cmsis_gcc.h ****   #pragma GCC diagnostic ignored "-Wpacked"
  97:Drivers/CMSIS/Include/cmsis_gcc.h ****   #pragma GCC diagnostic ignored "-Wattributes"
  98:Drivers/CMSIS/Include/cmsis_gcc.h ****   __PACKED_STRUCT T_UINT32_WRITE { uint32_t v; };
  99:Drivers/CMSIS/Include/cmsis_gcc.h ****   #pragma GCC diagnostic pop
 100:Drivers/CMSIS/Include/cmsis_gcc.h ****   #define __UNALIGNED_UINT32_WRITE(addr, val)    (void)((((struct T_UINT32_WRITE *)(void *)(addr))-
 101:Drivers/CMSIS/Include/cmsis_gcc.h **** #endif
 102:Drivers/CMSIS/Include/cmsis_gcc.h **** #ifndef   __UNALIGNED_UINT32_READ
 103:Drivers/CMSIS/Include/cmsis_gcc.h ****   #pragma GCC diagnostic push
 104:Drivers/CMSIS/Include/cmsis_gcc.h ****   #pragma GCC diagnostic ignored "-Wpacked"
 105:Drivers/CMSIS/Include/cmsis_gcc.h ****   #pragma GCC diagnostic ignored "-Wattributes"
 106:Drivers/CMSIS/Include/cmsis_gcc.h ****   __PACKED_STRUCT T_UINT32_READ { uint32_t v; };
 107:Drivers/CMSIS/Include/cmsis_gcc.h ****   #pragma GCC diagnostic pop
 108:Drivers/CMSIS/Include/cmsis_gcc.h ****   #define __UNALIGNED_UINT32_READ(addr)          (((const struct T_UINT32_READ *)(const void *)(add
 109:Drivers/CMSIS/Include/cmsis_gcc.h **** #endif
 110:Drivers/CMSIS/Include/cmsis_gcc.h **** #ifndef   __ALIGNED
 111:Drivers/CMSIS/Include/cmsis_gcc.h ****   #define __ALIGNED(x)                           __attribute__((aligned(x)))
 112:Drivers/CMSIS/Include/cmsis_gcc.h **** #endif
 113:Drivers/CMSIS/Include/cmsis_gcc.h **** #ifndef   __RESTRICT
 114:Drivers/CMSIS/Include/cmsis_gcc.h ****   #define __RESTRICT                             __restrict
 115:Drivers/CMSIS/Include/cmsis_gcc.h **** #endif
 116:Drivers/CMSIS/Include/cmsis_gcc.h **** 
 117:Drivers/CMSIS/Include/cmsis_gcc.h **** 
 118:Drivers/CMSIS/Include/cmsis_gcc.h **** /* ###########################  Core Function Access  ########################### */
 119:Drivers/CMSIS/Include/cmsis_gcc.h **** /** \ingroup  CMSIS_Core_FunctionInterface
 120:Drivers/CMSIS/Include/cmsis_gcc.h ****     \defgroup CMSIS_Core_RegAccFunctions CMSIS Core Register Access Functions
 121:Drivers/CMSIS/Include/cmsis_gcc.h ****   @{
 122:Drivers/CMSIS/Include/cmsis_gcc.h ****  */
 123:Drivers/CMSIS/Include/cmsis_gcc.h **** 
 124:Drivers/CMSIS/Include/cmsis_gcc.h **** /**
 125:Drivers/CMSIS/Include/cmsis_gcc.h ****   \brief   Enable IRQ Interrupts
 126:Drivers/CMSIS/Include/cmsis_gcc.h ****   \details Enables IRQ interrupts by clearing the I-bit in the CPSR.
 127:Drivers/CMSIS/Include/cmsis_gcc.h ****            Can only be executed in Privileged modes.
 128:Drivers/CMSIS/Include/cmsis_gcc.h ****  */
ARM GAS  C:\Users\ASUS\AppData\Local\Temp\ccVQgeFh.s 			page 29


 129:Drivers/CMSIS/Include/cmsis_gcc.h **** __STATIC_FORCEINLINE void __enable_irq(void)
 130:Drivers/CMSIS/Include/cmsis_gcc.h **** {
 131:Drivers/CMSIS/Include/cmsis_gcc.h ****   __ASM volatile ("cpsie i" : : : "memory");
 132:Drivers/CMSIS/Include/cmsis_gcc.h **** }
 133:Drivers/CMSIS/Include/cmsis_gcc.h **** 
 134:Drivers/CMSIS/Include/cmsis_gcc.h **** 
 135:Drivers/CMSIS/Include/cmsis_gcc.h **** /**
 136:Drivers/CMSIS/Include/cmsis_gcc.h ****   \brief   Disable IRQ Interrupts
 137:Drivers/CMSIS/Include/cmsis_gcc.h ****   \details Disables IRQ interrupts by setting the I-bit in the CPSR.
 138:Drivers/CMSIS/Include/cmsis_gcc.h ****            Can only be executed in Privileged modes.
 139:Drivers/CMSIS/Include/cmsis_gcc.h ****  */
 140:Drivers/CMSIS/Include/cmsis_gcc.h **** __STATIC_FORCEINLINE void __disable_irq(void)
 141:Drivers/CMSIS/Include/cmsis_gcc.h **** {
 142:Drivers/CMSIS/Include/cmsis_gcc.h ****   __ASM volatile ("cpsid i" : : : "memory");
 1032              		.loc 2 142 3
 1033              		.syntax unified
 1034              	@ 142 "Drivers/CMSIS/Include/cmsis_gcc.h" 1
 1035 0004 72B6     		cpsid i
 1036              	@ 0 "" 2
 143:Drivers/CMSIS/Include/cmsis_gcc.h **** }
 1037              		.loc 2 143 1
 1038              		.thumb
 1039              		.syntax unified
 1040 0006 00BF     		nop
 1041              	.L44:
 1042              	.LBE11:
 1043              	.LBE10:
 445:./Core/Src/main.c ****   /* USER CODE BEGIN Error_Handler_Debug */
 446:./Core/Src/main.c ****   /* User can add his own implementation to report the HAL error return state */
 447:./Core/Src/main.c ****   __disable_irq();
 448:./Core/Src/main.c ****   while (1)
 1044              		.loc 1 448 9 discriminator 1
 1045 0008 FEE7     		b	.L44
 1046              		.cfi_endproc
 1047              	.LFE75:
 1049              		.text
 1050              	.Letext0:
 1051              		.file 3 "Drivers/CMSIS/Device/ST/STM32F1xx/Include/stm32f103xb.h"
 1052              		.file 4 "c:\\st\\stm32cubeide_1.7.0\\stm32cubeide\\plugins\\com.st.stm32cube.ide.mcu.externaltools
 1053              		.file 5 "c:\\st\\stm32cubeide_1.7.0\\stm32cubeide\\plugins\\com.st.stm32cube.ide.mcu.externaltools
 1054              		.file 6 "Drivers/STM32F1xx_HAL_Driver/Inc/stm32f1xx_hal_def.h"
 1055              		.file 7 "Drivers/STM32F1xx_HAL_Driver/Inc/stm32f1xx_hal_rcc.h"
 1056              		.file 8 "Drivers/STM32F1xx_HAL_Driver/Inc/stm32f1xx_hal_rcc_ex.h"
 1057              		.file 9 "Drivers/STM32F1xx_HAL_Driver/Inc/stm32f1xx_hal_gpio.h"
 1058              		.file 10 "Drivers/STM32F1xx_HAL_Driver/Inc/stm32f1xx_hal_dma.h"
 1059              		.file 11 "Drivers/STM32F1xx_HAL_Driver/Inc/stm32f1xx_hal_tim.h"
 1060              		.file 12 "Drivers/STM32F1xx_HAL_Driver/Inc/stm32f1xx_hal_uart.h"
 1061              		.file 13 "Core/Inc/Software_Timer.h"
 1062              		.file 14 "Core/Inc/global.h"
 1063              		.file 15 "Core/Inc/traffic_timer.h"
 1064              		.file 16 "Core/Inc/button.h"
 1065              		.file 17 "Drivers/STM32F1xx_HAL_Driver/Inc/stm32f1xx_hal_cortex.h"
 1066              		.file 18 "Core/Inc/main.h"
 1067              		.file 19 "Drivers/STM32F1xx_HAL_Driver/Inc/stm32f1xx_hal_tim_ex.h"
 1068              		.file 20 "Core/Inc/LED_TOGGLE.h"
 1069              		.file 21 "Drivers/STM32F1xx_HAL_Driver/Inc/stm32f1xx_hal.h"
 1070              		.file 22 "c:\\st\\stm32cubeide_1.7.0\\stm32cubeide\\plugins\\com.st.stm32cube.ide.mcu.externaltool
ARM GAS  C:\Users\ASUS\AppData\Local\Temp\ccVQgeFh.s 			page 30


 1071              		.file 23 "Core/Inc/fsm_manual.h"
ARM GAS  C:\Users\ASUS\AppData\Local\Temp\ccVQgeFh.s 			page 31

